(dp1
S'606072'
p2
(lp3
S'C535686'
p4
asS'606071'
p5
(lp6
S'C565261'
p7
asS'259730'
p8
(lp9
S'C536058'
p10
asS'145750'
p11
(lp12
S'D006953'
p13
asS'304730'
p14
(lp15
S'C535376'
p16
asS'173400'
p17
(lp18
S'C566800'
p19
asS'613055'
p20
(lp21
S'C567802'
p22
asS'608930'
p23
(lp24
S'C563832'
p25
asS'131440'
p26
(lp27
S'C565054'
p28
asS'606272'
p29
(lp30
S'C562683'
p31
aS'C535765'
p32
asS'612262'
p33
(lp34
S'C567377'
p35
asS'612261'
p36
(lp37
S'C567378'
p38
asS'612260'
p39
(lp40
S'C567379'
p41
asS'270960'
p42
(lp43
S'C536875'
p44
asS'603649'
p45
(lp46
S'C566350'
p47
asS'312780'
p48
(lp49
S'C562446'
p50
asS'612469'
p51
(lp52
S'C567292'
p53
asS'184450'
p54
(lp55
S'D013342'
p56
asS'613115'
p57
(lp58
S'C567738'
p59
asS'612463'
p60
(lp61
S'D011556'
p62
asS'231670'
p63
(lp64
S'C536833'
p65
asS'241850'
p66
(lp67
S'C537901'
p68
asS'612288'
p69
(lp70
S'C567361'
p71
asS'590050'
p72
(lp73
S'D008268'
p74
aS'D030401'
p75
aS'C536246'
p76
aS'C536228'
p77
aS'C579867'
p78
asS'145680'
p79
(lp80
S'C567719'
p81
asS'604933'
p82
(lp83
S'D016889'
p84
asS'180295'
p85
(lp86
S'C566709'
p87
asS'611816'
p88
(lp89
S'C567516'
p90
asS'148700'
p91
(lp92
S'C536162'
p93
asS'213200'
p94
(lp95
S'C565865'
p96
asS'611812'
p97
(lp98
S'C567517'
p99
asS'120120'
p100
(lp101
S'D016108'
p102
aS'C564384'
p103
asS'120430'
p104
(lp105
S'C535970'
p106
asS'120436'
p107
(lp108
S'C536928'
p109
aS'D055847'
p110
asS'215300'
p111
(lp112
S'D002813'
p113
asS'266280'
p114
(lp115
S'C535288'
p116
asS'120435'
p117
(lp118
g110
aS'C535972'
p119
asS'259600'
p120
(lp121
S'C536051'
p122
asS'601362'
p123
(lp124
S'C563337'
p125
asS'300257'
p126
(lp127
S'D052120'
p128
asS'119550'
p129
(lp130
S'C563047'
p131
asS'602195'
p132
(lp133
S'C535413'
p134
aS'C567084'
p135
asS'300258'
p136
(lp137
S'C535866'
p138
asS'608796'
p139
(lp140
S'C536993'
p141
asS'264090'
p142
(lp143
S'C536423'
p144
asS'603736'
p145
(lp146
S'C536717'
p147
asS'300491'
p148
(lp149
S'C564505'
p150
asS'611897'
p151
(lp152
S'C567498'
p153
asS'613180'
p154
(lp155
S'C567715'
p156
asS'255800'
p157
(lp158
S'D010009'
p159
asS'300498'
p160
(lp161
S'C564503'
p162
asS'601868'
p163
(lp164
S'C566612'
p165
asS'185070'
p166
(lp167
S'C566108'
p168
asS'605726'
p169
(lp170
S'C535715'
p171
asS'155255'
p172
(lp173
S'D008527'
p174
asS'206700'
p175
(lp176
S'C536370'
p177
asS'613269'
p178
(lp179
S'C567676'
p180
asS'603221'
p181
(lp182
S'C566397'
p183
asS'309300'
p184
(lp185
S'C562829'
p186
asS'602991'
p187
(lp188
S'C536943'
p189
asS'612422'
p190
(lp191
S'C567316'
p192
asS'277000'
p193
(lp194
S'C537371'
p195
asS'167030'
p196
(lp197
S'D007669'
p198
aS'C563477'
p199
asS'610508'
p200
(lp201
S'C566466'
p202
asS'148300'
p203
(lp204
S'C563649'
p205
asS'261100'
p206
(lp207
S'C538556'
p208
asS'613235'
p209
(lp210
S'C567688'
p211
asS'606675'
p212
(lp213
S'C564680'
p214
asS'605779'
p215
(lp216
S'C538333'
p217
asS'613546'
p218
(lp219
S'C537436'
p220
asS'610504'
p221
(lp222
S'C563032'
p223
asS'610505'
p224
(lp225
S'C566467'
p226
asS'182290'
p227
(lp228
S'D058496'
p229
asS'149200'
p230
(lp231
S'C537210'
p232
asS'139150'
p233
(lp234
S'D013341'
p235
asS'152950'
p236
(lp237
S'C537711'
p238
asS'612285'
p239
(lp240
S'C567364'
p241
asS'612284'
p242
(lp243
S'C567365'
p244
asS'612287'
p245
(lp246
S'C567362'
p247
asS'612286'
p248
(lp249
S'C567363'
p250
asS'616004'
p251
(lp252
S'C562727'
p253
aS'C565970'
p254
asS'612283'
p255
(lp256
S'C567353'
p257
asS'603824'
p258
(lp259
S'C536816'
p260
asS'135100'
p261
(lp262
S'D009221'
p263
asS'253550'
p264
(lp265
S'D014897'
p266
aS'C536879'
p267
asS'603828'
p268
(lp269
S'C565842'
p270
asS'277460'
p271
(lp272
S'C535393'
p273
asS'607014'
p274
(lp275
S'D008059'
p276
asS'140350'
p277
(lp278
S'C535845'
p279
asS'190020'
p280
(lp281
S'D056685'
p282
asS'611588'
p283
(lp284
S'C566912'
p285
asS'609241'
p286
(lp287
S'C536631'
p288
asS'609242'
p289
(lp290
S'C536631'
p291
asS'277480'
p292
(lp293
S'D056729'
p294
asS'278800'
p295
(lp296
S'C535992'
p297
asS'191045'
p298
(lp299
S'C563306'
p300
ag192
asS'191044'
p301
(lp302
S'C566168'
p303
asS'610618'
p304
(lp305
S'D056828'
p306
asS'265000'
p307
(lp308
S'C537377'
p309
asS'251170'
p310
(lp311
S'D054078'
p312
aS'C536339'
p313
asS'125630'
p314
(lp315
S'C536612'
p316
asS'602771'
p317
(lp318
S'C535683'
p319
asS'244460'
p320
(lp321
S'C537021'
p322
asS'600937'
p323
(lp324
S'C563425'
p325
aS'C566432'
p326
aS'C564219'
p327
aS'C563424'
p328
asS'106280'
p329
(lp330
S'C562396'
p331
asS'301200'
p332
(lp333
S'C564463'
p334
aS'C538243'
p335
asS'301201'
p336
(lp337
S'C537412'
p338
asS'146300'
p339
(lp340
S'C562647'
p341
aS'C564146'
p342
asS'613521'
p343
(lp344
S'D017119'
p345
asS'602014'
p346
(lp347
S'C566593'
p348
asS'153550'
p349
(lp350
S'C535323'
p351
asS'227300'
p352
(lp353
S'C565577'
p354
asS'153800'
p355
(lp356
S'C562479'
p357
asS'612138'
p358
(lp359
S'C567408'
p360
asS'605375'
p361
(lp362
S'C565334'
p363
asS'608083'
p364
(lp365
S'D008072'
p366
asS'300071'
p367
(lp368
S'C536122'
p369
asS'300076'
p370
(lp371
S'C536743'
p372
asS'612132'
p373
(lp374
S'C567411'
p375
asS'605373'
p376
(lp377
S'C565335'
p378
asS'125400'
p379
(lp380
S'C538215'
p381
asS'612255'
p382
(lp383
S'C567381'
p384
asS'609404'
p385
(lp386
S'C563724'
p387
asS'309200'
p388
(lp389
S'C564108'
p390
asS'605192'
p391
(lp392
S'C565357'
p393
asS'604352'
p394
(lp395
S'C565788'
p396
asS'302200'
p397
(lp398
S'C535338'
p399
asS'601186'
p400
(lp401
S'C537768'
p402
asS'122700'
p403
(lp404
S'C563039'
p405
aS'C567080'
p406
aS'C567276'
p407
asS'604356'
p408
(lp409
S'D004370'
p410
asS'609408'
p411
(lp412
S'C563723'
p413
asS'600857'
p414
(lp415
S'D007888'
p416
asS'268700'
p417
(lp418
S'D020167'
p419
asS'228355'
p420
(lp421
S'D003409'
p422
asS'613426'
p423
(lp424
S'C563538'
p425
asS'600852'
p426
(lp427
S'C563437'
p428
asS'612462'
p429
(lp430
S'C548076'
p431
asS'202300'
p432
(lp433
S'C565973'
p434
aS'C565972'
p435
asS'200700'
p436
(lp437
S'C537915'
p438
asS'606187'
p439
(lp440
S'C565251'
p441
asS'112310'
p442
(lp443
S'C536573'
p444
asS'601678'
p445
(lp446
S'C537652'
p447
asS'606798'
p448
(lp449
S'C535428'
p450
asS'610768'
p451
(lp452
S'C563666'
p453
asS'601675'
p454
(lp455
S'D054463'
p456
asS'208550'
p457
(lp458
S'C565935'
p459
aS'C565739'
p460
asS'255160'
p461
(lp462
S'C564970'
p463
asS'249500'
p464
(lp465
S'C565406'
p466
asS'162100'
p467
(lp468
S'D020968'
p469
asS'184840'
p470
(lp471
S'C537494'
p472
asS'300100'
p473
(lp474
S'D000326'
p475
asS'134500'
p476
(lp477
S'D006467'
p478
asS'274900'
p479
(lp480
S'C562771'
p481
asS'601072'
p482
(lp483
S'C563395'
p484
aS'C565341'
p485
asS'251000'
p486
(lp487
S'C565390'
p488
asS'601071'
p489
(lp490
S'C563396'
p491
asS'272620'
p492
(lp493
S'D009069'
p494
asS'251950'
p495
(lp496
S'C537476'
p497
asS'601691'
p498
(lp499
S'C535804'
p500
aS'C565827'
p501
aS'C566637'
p502
asS'115080'
p503
(lp504
S'D016757'
p505
aS'C562490'
p506
asS'202700'
p507
(lp508
S'C565969'
p509
asS'611081'
p510
(lp511
S'C567021'
p512
asS'163500'
p513
(lp514
S'C566869'
p515
asS'611363'
p516
(lp517
S'C566963'
p518
asS'186100'
p519
(lp520
S'C538154'
p521
asS'613850'
p522
(lp523
S'C564127'
p524
asS'609060'
p525
(lp526
S'C563797'
p527
asS'561000'
p528
(lp529
S'D002313'
p530
aS'C564013'
p531
aS'C538268'
p532
asS'611369'
p533
(lp534
S'C566961'
p535
asS'156250'
p536
(lp537
S'C562938'
p538
asS'609069'
p539
(lp540
S'C563796'
p541
asS'608594'
p542
(lp543
S'D052497'
p544
asS'132900'
p545
(lp546
S'C537784'
p547
asS'607932'
p548
(lp549
S'C566440'
p550
asS'611561'
p551
(lp552
S'C566915'
p553
asS'611560'
p554
(lp555
S'C566916'
p556
asS'607936'
p557
(lp558
S'C564309'
p559
asS'252920'
p560
(lp561
S'D009084'
p562
asS'611038'
p563
(lp564
S'C567025'
p565
asS'613731'
p566
(lp567
S'C566706'
p568
asS'610320'
p569
(lp570
S'C565202'
p571
asS'609299'
p572
(lp573
S'C563744'
p574
asS'118800'
p575
(lp576
S'C537181'
p577
asS'210400'
p578
(lp579
S'C535441'
p580
asS'176200'
p581
(lp582
S'D046350'
p583
aS'C538659'
p584
asS'614569'
p585
(lp586
S'D004687'
p587
asS'264600'
p588
(lp589
S'C535830'
p590
asS'264350'
p591
(lp592
S'D011546'
p593
asS'608443'
p594
(lp595
S'C563929'
p596
asS'608627'
p597
(lp598
S'C563895'
p599
asS'608716'
p600
(lp601
S'C563871'
p602
asS'608622'
p603
(lp604
S'C563897'
p605
asS'144650'
p606
(lp607
S'D006954'
p608
asS'243300'
p609
(lp610
S'C535933'
p611
asS'209850'
p612
(lp613
S'D001321'
p614
aS'D000067877'
p615
asS'608629'
p616
(lp617
S'C536295'
p618
asS'610353'
p619
(lp620
S'C563679'
p621
asS'271400'
p622
(lp623
S'C563028'
p624
asS'612918'
p625
(lp626
S'C567863'
p627
asS'610357'
p628
(lp629
S'C563677'
p630
asS'610356'
p631
(lp632
S'C563678'
p633
asS'610359'
p634
(lp635
S'C563676'
p636
asS'269920'
p637
(lp638
S'D029461'
p639
asS'269921'
p640
(lp641
S'D029461'
p642
aS'C537332'
p643
asS'272750'
p644
(lp645
S'D049290'
p646
asS'259770'
p647
(lp648
S'C536063'
p649
asS'610193'
p650
(lp651
S'C565707'
p652
asS'226650'
p653
(lp654
S'C562639'
p655
aS'D016109'
p656
asS'171300'
p657
(lp658
S'D010673'
p659
asS'226300'
p660
(lp661
S'D011504'
p662
asS'303350'
p663
(lp664
S'C536029'
p665
asS'610198'
p666
(lp667
S'C565706'
p668
asS'608089'
p669
(lp670
g84
asS'601455'
p671
(lp672
S'C535716'
p673
asS'169600'
p674
(lp675
S'D016506'
p676
asS'601457'
p677
(lp678
S'C563311'
p679
asS'604131'
p680
(lp681
S'D017085'
p682
asS'601321'
p683
(lp684
S'C537393'
p685
asS'600105'
p686
(lp687
S'C563999'
p688
asS'607706'
p689
(lp690
S'C539595'
p691
aS'C535414'
p692
asS'607731'
p693
(lp694
S'C535415'
p695
asS'175860'
p696
(lp697
S'C536338'
p698
asS'600101'
p699
(lp700
S'C567441'
p701
asS'607736'
p702
(lp703
S'C535417'
p704
asS'157700'
p705
(lp706
S'D008945'
p707
asS'607734'
p708
(lp709
S'C537987'
p710
asS'608710'
p711
(lp712
S'D014890'
p713
asS'600321'
p714
(lp715
S'C563957'
p716
asS'607440'
p717
(lp718
g285
aS'C566907'
p719
asS'607115'
p720
(lp721
S'D056587'
p722
asS'611819'
p723
(lp724
S'C567514'
p725
asS'601407'
p726
(lp727
S'C563323'
p728
asS'606463'
p729
(lp730
S'D005776'
p731
aS'C564306'
p732
asS'273800'
p733
(lp734
S'D013915'
p735
asS'611818'
p736
(lp737
S'C567515'
p738
asS'192950'
p739
(lp740
S'C536345'
p741
asS'212065'
p742
(lp743
S'C535739'
p744
asS'608133'
p745
(lp746
S'C564284'
p747
aS'C567263'
p748
asS'611174'
p749
(lp750
S'C566988'
p751
asS'209920'
p752
(lp753
S'C537079'
p754
aS'C565910'
p755
asS'177000'
p756
(lp757
S'D046351'
p758
asS'613106'
p759
(lp760
S'C567749'
p761
asS'607596'
p762
(lp763
S'C548069'
p764
asS'607595'
p765
(lp766
S'C564372'
p767
asS'607594'
p768
(lp769
S'D017074'
p770
asS'207600'
p771
(lp772
S'D013625'
p773
asS'606864'
p774
(lp775
S'C564650'
p776
asS'610992'
p777
(lp778
S'C567032'
p779
asS'212780'
p780
(lp781
S'C538150'
p782
asS'183086'
p783
(lp784
S'D020754'
p785
asS'607598'
p786
(lp787
S'C564369'
p788
asS'147050'
p789
(lp790
S'D006969'
p791
aS'C564133'
p792
asS'607841'
p793
(lp794
S'C564322'
p795
asS'607840'
p796
(lp797
S'D009081'
p798
aS'C567100'
p799
asS'610285'
p800
(lp801
S'C536647'
p802
asS'607842'
p803
(lp804
S'C564321'
p805
asS'131900'
p806
(lp807
S'D016110'
p808
asS'610282'
p809
(lp810
S'C565206'
p811
asS'212140'
p812
(lp813
S'C536778'
p814
asS'228930'
p815
(lp816
S'C538189'
p817
asS'263200'
p818
(lp819
S'D017044'
p820
aS'C562378'
p821
asS'612868'
p822
(lp823
S'C567546'
p824
asS'604804'
p825
(lp826
S'C565746'
p827
asS'610978'
p828
(lp829
S'C567034'
p830
asS'609265'
p831
(lp832
S'C563755'
p833
asS'107250'
p834
(lp835
S'C537775'
p836
asS'607208'
p837
(lp838
S'D004831'
p839
asS'249270'
p840
(lp841
S'C536510'
p842
asS'603030'
p843
(lp844
S'C566417'
p845
asS'607200'
p846
(lp847
S'C564608'
p848
asS'300672'
p849
(lp850
S'C564064'
p851
asS'612736'
p852
(lp853
S'C537622'
p854
asS'300676'
p855
(lp856
S'C567063'
p857
asS'609266'
p858
(lp859
S'C563754'
p860
asS'306400'
p861
(lp862
S'C564417'
p863
aS'D006105'
p864
asS'192315'
p865
(lp866
S'C566007'
p867
asS'269150'
p868
(lp869
S'C536632'
p870
asS'151380'
p871
(lp872
S'D007948'
p873
asS'126600'
p874
(lp875
S'C535602'
p876
asS'613021'
p877
(lp878
S'C567813'
p879
asS'180750'
p880
(lp881
S'C537183'
p882
asS'225300'
p883
(lp884
S'C567616'
p885
asS'127800'
p886
(lp887
S'C537997'
p888
asS'259720'
p889
(lp890
S'C566883'
p891
asS'300495'
p892
(lp893
S'D038901'
p894
asS'241200'
p895
(lp896
S'C537651'
p897
asS'248450'
p898
(lp899
S'C536022'
p900
asS'606082'
p901
(lp902
S'C565260'
p903
asS'606240'
p904
(lp905
S'C565247'
p906
asS'210720'
p907
(lp908
S'C565898'
p909
asS'606243'
p910
(lp911
S'D018234'
p912
asS'161900'
p913
(lp914
S'C562889'
p915
asS'248390'
p916
(lp917
S'C535707'
p918
asS'608331'
p919
(lp920
S'C536285'
p921
aS'C563009'
p922
asS'255960'
p923
(lp924
S'C538262'
p925
asS'608681'
p926
(lp927
S'C535781'
p928
asS'311000'
p929
(lp930
S'C564087'
p931
asS'300635'
p932
(lp933
S'C564469'
p934
asS'609340'
p935
(lp936
S'C563732'
p937
asS'611040'
p938
(lp939
S'C567024'
p940
asS'606640'
p941
(lp942
S'C564688'
p943
asS'314300'
p944
(lp945
S'C536970'
p946
asS'220150'
p947
(lp948
S'C537757'
p949
asS'609981'
p950
(lp951
S'C566492'
p952
asS'173650'
p953
(lp954
S'C536321'
p955
asS'611820'
p956
(lp957
S'C567513'
p958
asS'608022'
p959
(lp960
S'C564305'
p961
asS'130650'
p962
(lp963
S'D001506'
p964
asS'603694'
p965
(lp966
S'C566342'
p967
asS'166250'
p968
(lp969
S'C536050'
p970
asS'606049'
p971
(lp972
S'C535656'
p973
asS'277900'
p974
(lp975
S'D006527'
p976
asS'610427'
p977
(lp978
S'C536122'
p979
asS'303900'
p980
(lp981
S'D003117'
p982
asS'262000'
p983
(lp984
S'C537633'
p985
asS'300243'
p986
(lp987
S'C567484'
p988
asS'304790'
p989
(lp990
S'C580192'
p991
asS'300245'
p992
(lp993
S'C564553'
p994
asS'300244'
p995
(lp996
S'C564554'
p997
asS'267500'
p998
(lp999
S'C538361'
p1000
asS'300248'
p1001
(lp1002
S'C536181'
p1003
aS'C564542'
p1004
asS'184500'
p1005
(lp1006
S'D062685'
p1007
asS'102370'
p1008
(lp1009
S'C535662'
p1010
asS'601853'
p1011
(lp1012
S'C537285'
p1013
asS'300486'
p1014
(lp1015
S'C537456'
p1016
asS'310440'
p1017
(lp1018
S'C564093'
p1019
asS'300484'
p1020
(lp1021
S'C580500'
p1022
asS'601859'
p1023
(lp1024
S'D056735'
p1025
aS'C566613'
p1026
aS'C566614'
p1027
asS'602347'
p1028
(lp1029
S'C535935'
p1030
asS'129200'
p1031
(lp1032
S'C537659'
p1033
asS'603218'
p1034
(lp1035
S'C566398'
p1036
asS'608902'
p1037
(lp1038
S'C563835'
p1039
asS'603585'
p1040
(lp1041
S'C567040'
p1042
asS'155240'
p1043
(lp1044
S'C536911'
p1045
asS'611953'
p1046
(lp1047
S'C567450'
p1048
asS'120353'
p1049
(lp1050
g223
asS'120040'
p1051
(lp1052
S'C536432'
p1053
asS'611958'
p1054
(lp1055
S'C567448'
p1056
asS'611959'
p1057
(lp1058
S'C567447'
p1059
asS'608029'
p1060
(lp1061
S'C537312'
p1062
asS'603967'
p1063
(lp1064
S'C538353'
p1065
aS'D020967'
p1066
asS'309510'
p1067
(lp1068
S'C536300'
p1069
asS'603965'
p1070
(lp1071
S'C565831'
p1072
asS'604287'
p1073
(lp1074
S'C565803'
p1075
asS'603266'
p1076
(lp1077
S'C566395'
p1078
asS'219080'
p1079
(lp1080
S'C565662'
p1081
asS'605746'
p1082
(lp1083
S'C565299'
p1084
asS'182280'
p1085
(lp1086
S'D055752'
p1087
asS'241530'
p1088
(lp1089
S'C562793'
p1090
asS'613080'
p1091
(lp1092
S'C567766'
p1093
asS'131300'
p1094
(lp1095
S'D003966'
p1096
asS'613087'
p1097
(lp1098
S'C567764'
p1099
asS'141200'
p1100
(lp1101
S'C562476'
p1102
asS'259050'
p1103
(lp1104
S'C536420'
p1105
asS'231070'
p1106
(lp1107
S'C537799'
p1108
asS'220200'
p1109
(lp1110
S'D003616'
p1111
asS'153700'
p1112
(lp1113
S'D057826'
p1114
asS'201550'
p1115
(lp1116
S'C562949'
p1117
asS'119100'
p1118
(lp1119
S'C536425'
p1120
asS'192090'
p1121
(lp1122
S'D013274'
p1123
asS'277470'
p1124
(lp1125
S'C564738'
p1126
asS'608837'
p1127
(lp1128
S'C563845'
p1129
asS'608836'
p1130
(lp1131
S'C563463'
p1132
asS'240400'
p1133
(lp1134
S'D012614'
p1135
asS'166900'
p1136
(lp1137
S'C563480'
p1138
asS'277700'
p1139
(lp1140
S'D014898'
p1141
asS'609270'
p1142
(lp1143
S'C563753'
p1144
asS'609271'
p1145
(lp1146
S'C563752'
p1147
asS'609273'
p1148
(lp1149
S'C538398'
p1150
asS'260350'
p1151
(lp1152
S'C562463'
p1153
asS'601900'
p1154
(lp1155
S'C567096'
p1156
asS'604901'
p1157
(lp1158
S'C565737'
p1159
asS'610478'
p1160
(lp1161
S'C566470'
p1162
asS'116200'
p1163
(lp1164
S'C566158'
p1165
asS'604907'
p1166
(lp1167
S'C536291'
p1168
asS'611771'
p1169
(lp1170
S'C567089'
p1171
asS'191030'
p1172
(lp1173
S'D020914'
p1174
asS'611773'
p1175
(lp1176
S'C567088'
p1177
asS'604715'
p1178
(lp1179
S'D054971'
p1180
ag707
asS'611775'
p1181
(lp1182
S'D009080'
p1183
aS'C537014'
p1184
asS'305200'
p1185
(lp1186
S'C536197'
p1187
asS'611777'
p1188
(lp1189
S'C567087'
p1190
asS'613826'
p1191
(lp1192
S'C565327'
p1193
asS'167500'
p1194
(lp1195
S'D014681'
p1196
asS'124100'
p1197
(lp1198
S'D001449'
p1199
asS'608098'
p1200
(lp1201
S'C564291'
p1202
asS'144010'
p1203
(lp1204
S'D006938'
p1205
asS'603047'
p1206
(lp1207
S'D001251'
p1208
asS'603851'
p1209
(lp1210
S'C536209'
p1211
asS'607574'
p1212
(lp1213
S'D007966'
p1214
asS'613554'
p1215
(lp1216
S'D056728'
p1217
asS'600920'
p1218
(lp1219
S'C535909'
p1220
asS'300068'
p1221
(lp1222
S'D013734'
p1223
asS'242100'
p1224
(lp1225
S'C565473'
p1226
asS'205700'
p1227
(lp1228
S'D000744'
p1229
asS'609041'
p1230
(lp1231
S'C563807'
p1232
asS'134370'
p1233
(lp1234
S'C563034'
p1235
asS'274000'
p1236
(lp1237
S'C536940'
p1238
asS'535000'
p1239
(lp1240
S'D029242'
p1241
asS'306955'
p1242
(lp1243
S'C538116'
p1244
asS'300066'
p1245
(lp1246
S'C564723'
p1247
asS'601199'
p1248
(lp1249
S'C563375'
p1250
aS'C563373'
p1251
asS'219150'
p1252
(lp1253
S'C535990'
p1254
asS'604895'
p1255
(lp1256
g460
asS'204650'
p1257
(lp1258
S'C567147'
p1259
asS'202550'
p1260
(lp1261
S'C538058'
p1262
asS'611488'
p1263
(lp1264
S'C566935'
p1265
asS'611489'
p1266
(lp1267
S'C565152'
p1268
asS'236800'
p1269
(lp1270
S'C536081'
p1271
asS'166800'
p1272
(lp1273
S'D010040'
p1274
asS'250940'
p1275
(lp1276
S'C565394'
p1277
asS'218300'
p1278
(lp1279
S'C562940'
p1280
asS'610015'
p1281
(lp1282
S'C536832'
p1283
asS'606937'
p1284
(lp1285
S'C537311'
p1286
asS'613497'
p1287
(lp1288
S'D015217'
p1289
asS'609533'
p1290
(lp1291
S'C563705'
p1292
asS'190320'
p1293
(lp1294
S'C536549'
p1295
asS'600881'
p1296
(lp1297
S'C563435'
p1298
asS'219200'
p1299
(lp1300
S'C562632'
p1301
asS'241520'
p1302
(lp1303
S'C562792'
p1304
asS'605526'
p1305
(lp1306
S'C565325'
p1307
asS'236730'
p1308
(lp1309
S'C536480'
p1310
asS'301500'
p1311
(lp1312
S'D000795'
p1313
asS'605522'
p1314
(lp1315
S'C536311'
p1316
aS'C573898'
p1317
aS'C566046'
p1318
asS'146000'
p1319
(lp1320
S'C562937'
p1321
asS'176670'
p1322
(lp1323
S'D011371'
p1324
aS'C567661'
p1325
asS'604831'
p1326
(lp1327
S'C536695'
p1328
asS'601666'
p1329
(lp1330
S'C566645'
p1331
asS'601665'
p1332
(lp1333
S'D009765'
p1334
aS'D013851'
p1335
asS'234200'
p1336
(lp1337
S'D006211'
p1338
asS'300115'
p1339
(lp1340
S'C564713'
p1341
asS'125520'
p1342
(lp1343
S'C535349'
p1344
asS'601068'
p1345
(lp1346
S'C563399'
p1347
asS'265100'
p1348
(lp1349
S'C562405'
p1350
asS'613237'
p1351
(lp1352
S'C567687'
p1353
asS'601067'
p1354
(lp1355
S'C563400'
p1356
asS'192430'
p1357
(lp1358
S'D004062'
p1359
asS'612858'
p1360
(lp1361
S'C567548'
p1362
asS'601680'
p1363
(lp1364
S'C538400'
p1365
asS'608051'
p1366
(lp1367
S'C562746'
p1368
asS'601682'
p1369
(lp1370
S'C566641'
p1371
asS'611543'
p1372
(lp1373
S'C566924'
p1374
asS'108720'
p1375
(lp1376
S'C535396'
p1377
asS'601688'
p1378
(lp1379
S'D010004'
p1380
asS'612852'
p1381
(lp1382
S'C557815'
p1383
asS'600985'
p1384
(lp1385
S'C536196'
p1386
asS'609053'
p1387
(lp1388
S'C563802'
p1389
asS'609054'
p1390
(lp1391
S'C563801'
p1392
asS'609055'
p1393
(lp1394
S'C537953'
p1395
asS'200600'
p1396
(lp1397
S'C536015'
p1398
asS'609057'
p1399
(lp1400
S'C563798'
p1401
asS'270300'
p1402
(lp1403
S'C564818'
p1404
asS'606752'
p1405
(lp1406
S'D004684'
p1407
asS'608583'
p1408
(lp1409
S'C538261'
p1410
asS'610019'
p1411
(lp1412
S'C535337'
p1413
asS'208400'
p1414
(lp1415
S'D054880'
p1416
aS'C538402'
p1417
asS'611390'
p1418
(lp1419
S'C566956'
p1420
asS'608586'
p1421
(lp1422
S'C563900'
p1423
asS'157660'
p1424
(lp1425
S'C563574'
p1426
asS'182870'
p1427
(lp1428
S'C566678'
p1429
asS'611553'
p1430
(lp1431
S'C548083'
p1432
asS'611554'
p1433
(lp1434
S'C537117'
p1435
asS'611556'
p1436
(lp1437
S'C566917'
p1438
asS'600624'
p1439
(lp1440
S'C563469'
p1441
asS'600625'
p1442
(lp1443
S'C567410'
p1444
asS'607906'
p1445
(lp1446
S'C535747'
p1447
asS'607907'
p1448
(lp1449
S'D018223'
p1450
asS'607903'
p1451
(lp1452
S'C564312'
p1453
asS'168850'
p1454
(lp1455
S'C536307'
p1456
asS'605231'
p1457
(lp1458
S'C565738'
p1459
asS'609180'
p1460
(lp1461
S'C535744'
p1462
asS'602639'
p1463
(lp1464
S'C566513'
p1465
asS'203800'
p1466
(lp1467
S'D056769'
p1468
asS'601200'
p1469
(lp1470
S'C537516'
p1471
asS'601202'
p1472
(lp1473
S'C537774'
p1474
asS'608456'
p1475
(lp1476
S'C563924'
p1477
asS'236750'
p1478
(lp1479
S'D015160'
p1480
asS'275400'
p1481
(lp1482
S'C536554'
p1483
asS'162800'
p1484
(lp1485
S'C536227'
p1486
asS'300804'
p1487
(lp1488
S'C567582'
p1489
asS'300803'
p1490
(lp1491
S'C567583'
p1492
asS'609197'
p1493
(lp1494
S'C563776'
p1495
asS'601539'
p1496
(lp1497
S'D052919'
p1498
asS'608634'
p1499
(lp1500
g135
asS'601536'
p1501
(lp1502
S'C535397'
p1503
asS'169100'
p1504
(lp1505
S'C566815'
p1506
asS'604011'
p1507
(lp1508
S'D012174'
p1509
asS'137215'
p1510
(lp1511
g1123
asS'601803'
p1512
(lp1513
S'C538105'
p1514
asS'222300'
p1515
(lp1516
S'D014929'
p1517
asS'151623'
p1518
(lp1519
S'C538639'
p1520
aS'C567189'
p1521
asS'612921'
p1522
(lp1523
S'C567862'
p1524
asS'135750'
p1525
(lp1526
S'C535689'
p1527
asS'614028'
p1528
(lp1529
S'C566270'
p1530
asS'142340'
p1531
(lp1532
S'D065630'
p1533
asS'610168'
p1534
(lp1535
S'C537783'
p1536
asS'610163'
p1537
(lp1538
S'C565712'
p1539
asS'255700'
p1540
(lp1541
S'D009224'
p1542
asS'600138'
p1543
(lp1544
S'C563991'
p1545
asS'602459'
p1546
(lp1547
S'C566545'
p1548
asS'176500'
p1549
(lp1550
S'C538208'
p1551
asS'278720'
p1552
(lp1553
S'C567886'
p1554
asS'132800'
p1555
(lp1556
S'C536150'
p1557
asS'300454'
p1558
(lp1559
S'C564511'
p1560
asS'600132'
p1561
(lp1562
S'C563992'
p1563
asS'605549'
p1564
(lp1565
S'C565322'
p1566
asS'115300'
p1567
(lp1568
S'C567296'
p1569
asS'601338'
p1570
(lp1571
S'C535351'
p1572
asS'115650'
p1573
(lp1574
S'C538282'
p1575
asS'310700'
p1576
(lp1577
S'C537853'
p1578
asS'607473'
p1579
(lp1580
S'C564393'
p1581
asS'607475'
p1582
(lp1583
S'C564392'
p1584
asS'600316'
p1585
(lp1586
S'C563961'
p1587
asS'600318'
p1588
(lp1589
S'C563960'
p1590
asS'252150'
p1591
(lp1592
S'C565372'
p1593
aS'C535811'
p1594
asS'182940'
p1595
(lp1596
S'D016135'
p1597
asS'114300'
p1598
(lp1599
S'C537288'
p1600
asS'225790'
p1601
(lp1602
S'C565593'
p1603
asS'612637'
p1604
(lp1605
S'C567218'
p1606
asS'612631'
p1607
(lp1608
S'C567228'
p1609
asS'612632'
p1610
(lp1611
S'C567227'
p1612
asS'183090'
p1613
(lp1614
S'D020754'
p1615
asS'608233'
p1616
(lp1617
S'C537709'
p1618
asS'147421'
p1619
(lp1620
S'D018979'
p1621
asS'612639'
p1622
(lp1623
S'C567217'
p1624
asS'604416'
p1625
(lp1626
S'C536253'
p1627
asS'607876'
p1628
(lp1629
S'C564313'
p1630
asS'614286'
p1631
(lp1632
S'D009190'
p1633
asS'607872'
p1634
(lp1635
S'C535362'
p1636
asS'184300'
p1637
(lp1638
S'D055009'
p1639
asS'271700'
p1640
(lp1641
S'C535799'
p1642
asS'248800'
p1643
(lp1644
S'D013132'
p1645
asS'600001'
p1646
(lp1647
S'C564011'
p1648
asS'600002'
p1649
(lp1650
S'C564010'
p1651
asS'137200'
p1652
(lp1653
S'D020386'
p1654
asS'126070'
p1655
(lp1656
S'C566872'
p1657
asS'143500'
p1658
(lp1659
S'D005878'
p1660
asS'226200'
p1661
(lp1662
S'C562649'
p1663
asS'217300'
p1664
(lp1665
S'C565677'
p1666
asS'171400'
p1667
(lp1668
S'D018813'
p1669
ag1045
asS'156530'
p1670
(lp1671
S'C537356'
p1672
asS'608980'
p1673
(lp1674
S'C567672'
p1675
asS'610947'
p1676
(lp1677
S'C567045'
p1678
asS'602694'
p1679
(lp1680
S'C537475'
p1681
asS'126700'
p1682
(lp1683
g1235
asS'601846'
p1684
(lp1685
S'C566617'
p1686
asS'607278'
p1687
(lp1688
S'C563276'
p1689
asS'105830'
p1690
(lp1691
S'D017204'
p1692
asS'105835'
p1693
(lp1694
S'C536361'
p1695
asS'607273'
p1696
(lp1697
S'C566795'
p1698
asS'607271'
p1699
(lp1700
g1025
asS'603829'
p1701
(lp1702
S'C567851'
p1703
asS'158310'
p1704
(lp1705
S'C536476'
p1706
asS'612703'
p1707
(lp1708
S'C567198'
p1709
asS'133900'
p1710
(lp1711
S'D005146'
p1712
aS'C563014'
p1713
asS'300707'
p1714
(lp1715
S'C567475'
p1716
asS'191830'
p1717
(lp1718
S'C563261'
p1719
asS'300661'
p1720
(lp1721
S'C567064'
p1722
asS'603358'
p1723
(lp1724
S'C537934'
p1725
asS'258480'
p1726
(lp1727
S'C537122'
p1728
asS'263520'
p1729
(lp1730
S'D012779'
p1731
asS'610381'
p1732
(lp1733
S'C563671'
p1734
asS'146700'
p1735
(lp1736
S'D016112'
p1737
asS'309585'
p1738
(lp1739
S'C536708'
p1740
asS'612098'
p1741
(lp1742
S'C567419'
p1743
asS'601992'
p1744
(lp1745
S'C566594'
p1746
asS'609636'
p1747
(lp1748
S'C566465'
p1749
asS'609942'
p1750
(lp1751
S'C537847'
p1752
asS'160980'
p1753
(lp1754
S'D056733'
p1755
asS'605822'
p1756
(lp1757
S'C565285'
p1758
asS'246400'
p1759
(lp1760
S'C538636'
p1761
asS'612447'
p1762
(lp1763
S'C567306'
p1764
asS'612446'
p1765
(lp1766
S'C567307'
p1767
aS'C567308'
p1768
asS'606170'
p1769
(lp1770
S'C565255'
p1771
asS'612444'
p1772
(lp1773
S'C567310'
p1774
asS'216900'
p1775
(lp1776
S'C536128'
p1777
asS'117650'
p1778
(lp1779
S'C562538'
p1780
asS'609941'
p1781
(lp1782
S'C538202'
p1783
asS'259440'
p1784
(lp1785
S'C564921'
p1786
asS'174900'
p1787
(lp1788
S'C537702'
p1789
asS'234700'
p1790
(lp1791
S'C535758'
p1792
asS'600171'
p1793
(lp1794
S'D006059'
p1795
asS'607864'
p1796
(lp1797
S'C564315'
p1798
asS'109270'
p1799
(lp1800
S'C566910'
p1801
asS'106700'
p1802
(lp1803
S'D012587'
p1804
asS'425500'
p1805
(lp1806
S'C564029'
p1807
asS'154700'
p1808
(lp1809
S'D008382'
p1810
asS'253400'
p1811
(lp1812
S'D014897'
p1813
asS'615710'
p1814
(lp1815
S'C567570'
p1816
asS'266600'
p1817
(lp1818
S'D003424'
p1819
aS'D003093'
p1820
asS'228100'
p1821
(lp1822
S'C536351'
p1823
asS'254200'
p1824
(lp1825
S'D009157'
p1826
asS'606658'
p1827
(lp1828
S'C564685'
p1829
asS'609995'
p1830
(lp1831
S'C566489'
p1832
asS'609994'
p1833
(lp1834
S'C566490'
p1835
asS'214500'
p1836
(lp1837
S'D002609'
p1838
asS'603689'
p1839
(lp1840
S'C566343'
p1841
asS'260500'
p1842
(lp1843
S'D020288'
p1844
aS'C562943'
p1845
asS'301040'
p1846
(lp1847
S'C538258'
p1848
asS'116920'
p1849
(lp1850
S'C535887'
p1851
asS'237500'
p1852
(lp1853
S'D007566'
p1854
asS'269300'
p1855
(lp1856
S'C537519'
p1857
asS'230400'
p1858
(lp1859
S'D005693'
p1860
asS'604093'
p1861
(lp1862
S'C537412'
p1863
asS'150280'
p1864
(lp1865
S'D055092'
p1866
asS'611584'
p1867
(lp1868
S'C536463'
p1869
asS'300271'
p1870
(lp1871
S'C564547'
p1872
asS'300273'
p1873
(lp1874
S'C564546'
p1875
asS'605582'
p1876
(lp1877
S'C565320'
p1878
asS'231100'
p1879
(lp1880
S'C536394'
p1881
asS'603204'
p1882
(lp1883
S'C566400'
p1884
asS'227810'
p1885
(lp1886
S'D005198'
p1887
asS'608931'
p1888
(lp1889
S'C536090'
p1890
aS'C563831'
p1891
asS'608932'
p1892
(lp1893
S'C563827'
p1894
asS'300475'
p1895
(lp1896
S'C564508'
p1897
asS'300472'
p1898
(lp1899
S'C564509'
p1900
asS'312600'
p1901
(lp1902
S'C567523'
p1903
asS'217085'
p1904
(lp1905
S'C537137'
p1906
asS'611943'
p1907
(lp1908
S'C567453'
p1909
asS'603592'
p1910
(lp1911
S'C566358'
p1912
asS'603596'
p1913
(lp1914
S'D017689'
p1915
asS'611945'
p1916
(lp1917
S'C567931'
p1918
asS'276600'
p1919
(lp1920
S'D020176'
p1921
asS'308100'
p1922
(lp1923
S'D016114'
p1924
asS'165800'
p1925
(lp1926
S'C580095'
p1927
asS'309800'
p1928
(lp1929
S'C537464'
p1930
asS'226670'
p1931
(lp1932
S'C535955'
p1933
asS'603471'
p1934
(lp1935
S'C538053'
p1936
asS'103285'
p1937
(lp1938
S'C538052'
p1939
asS'260470'
p1940
(lp1941
S'D013344'
p1942
asS'309500'
p1943
(lp1944
S'C537761'
p1945
asS'181030'
p1946
(lp1947
S'C563250'
p1948
asS'602082'
p1949
(lp1950
S'C535942'
p1951
asS'602083'
p1952
(lp1953
S'C566586'
p1954
asS'602080'
p1955
(lp1956
S'D010001'
p1957
asS'602081'
p1958
(lp1959
S'D001072'
p1960
asS'602086'
p1961
(lp1962
S'C566584'
p1963
asS'602087'
p1964
(lp1965
S'C566583'
p1966
asS'145000'
p1967
(lp1968
S'C564166'
p1969
asS'145001'
p1970
(lp1971
S'C563273'
p1972
asS'602088'
p1973
(lp1974
S'C566582'
p1975
asS'602089'
p1976
(lp1977
S'C535860'
p1978
asS'605588'
p1979
(lp1980
S'C537990'
p1981
asS'208150'
p1982
(lp1983
g802
asS'608804'
p1984
(lp1985
S'C563855'
p1986
asS'153480'
p1987
(lp1988
S'D006223'
p1989
asS'608807'
p1990
(lp1991
S'C563854'
p1992
asS'608800'
p1993
(lp1994
S'C563856'
p1995
asS'262650'
p1996
(lp1997
S'C537505'
p1998
asS'142900'
p1999
(lp2000
S'C535326'
p2001
asS'602579'
p2002
(lp2003
S'C535740'
p2004
asS'608808'
p2005
(lp2006
S'C563853'
p2007
asS'613092'
p2008
(lp2009
S'C567760'
p2010
asS'613091'
p2011
(lp2012
S'C537602'
p2013
aS'D012779'
p2014
asS'613090'
p2015
(lp2016
S'C567762'
p2017
asS'615537'
p2018
(lp2019
S'C562924'
p2020
asS'120140'
p2021
(lp2022
S'D007873'
p2023
ag1642
aS'C563710'
p2024
aS'C565179'
p2025
asS'300589'
p2026
(lp2027
S'C564478'
p2028
asS'613078'
p2029
(lp2030
S'C567767'
p2031
asS'300582'
p2032
(lp2033
S'C564479'
p2034
asS'104000'
p2035
(lp2036
S'C537055'
p2037
asS'300580'
p2038
(lp2039
S'C567594'
p2040
asS'300581'
p2041
(lp2042
S'C564480'
p2043
asS'603373'
p2044
(lp2045
S'C566384'
p2046
asS'166220'
p2047
(lp2048
S'C536045'
p2049
asS'300584'
p2050
(lp2051
S'C536289'
p2052
asS'604489'
p2053
(lp2054
S'C535444'
p2055
asS'277730'
p2056
(lp2057
S'D020915'
p2058
asS'611766'
p2059
(lp2060
S'C564021'
p2061
asS'611762'
p2062
(lp2063
S'C567090'
p2064
asS'608562'
p2065
(lp2066
S'C563909'
p2067
asS'270420'
p2068
(lp2069
S'C562576'
p2070
aS'C567490'
p2071
asS'135300'
p2072
(lp2073
S'C562884'
p2074
asS'141850'
p2075
(lp2076
S'D011086'
p2077
asS'205400'
p2078
(lp2079
S'D013631'
p2080
asS'301220'
p2081
(lp2082
S'C564461'
p2083
asS'602880'
p2084
(lp2085
S'D059446'
p2086
asS'150900'
p2087
(lp2088
S'D007911'
p2089
asS'600644'
p2090
(lp2091
S'C563464'
p2092
asS'215100'
p2093
(lp2094
S'C531651'
p2095
aS'D018902'
p2096
asS'300055'
p2097
(lp2098
S'C566875'
p2099
asS'600958'
p2100
(lp2101
S'C566169'
p2102
asS'602772'
p2103
(lp2104
S'C566425'
p2105
asS'253290'
p2106
(lp2107
g309
asS'600955'
p2108
(lp2109
S'C563423'
p2110
asS'612158'
p2111
(lp2112
S'C567407'
p2113
asS'602152'
p2114
(lp2115
S'C537612'
p2116
asS'602432'
p2117
(lp2118
S'C564233'
p2119
asS'189960'
p2120
(lp2121
S'C531835'
p2122
asS'300291'
p2123
(lp2124
g1003
ag1004
asS'602404'
p2125
(lp2126
S'C566552'
p2127
asS'602400'
p2128
(lp2129
S'C536273'
p2130
asS'300299'
p2131
(lp2132
S'C564539'
p2133
asS'611490'
p2134
(lp2135
S'C566933'
p2136
asS'611493'
p2137
(lp2138
S'C566244'
p2139
asS'255100'
p2140
(lp2141
S'C562935'
p2142
asS'270550'
p2143
(lp2144
S'C536787'
p2145
asS'611497'
p2146
(lp2147
S'C566931'
p2148
asS'609469'
p2149
(lp2150
S'C563713'
p2151
asS'611498'
p2152
(lp2153
S'C566930'
p2154
asS'613763'
p2155
(lp2156
S'C565134'
p2157
asS'203300'
p2158
(lp2159
S'C538539'
p2160
asS'600837'
p2161
(lp2162
S'C536209'
p2163
asS'300046'
p2164
(lp2165
S'C563144'
p2166
asS'304800'
p2167
(lp2168
S'D018500'
p2169
asS'250951'
p2170
(lp2171
S'C565393'
p2172
asS'250950'
p2173
(lp2174
S'C562801'
p2175
asS'222765'
p2176
(lp2177
S'C537607'
p2178
asS'604809'
p2179
(lp2180
S'C536174'
p2181
asS'610708'
p2182
(lp2183
S'C537126'
p2184
asS'148500'
p2185
(lp2186
S'C536164'
p2187
asS'232240'
p2188
(lp2189
S'C562805'
p2190
aS'C562806'
p2191
asS'604801'
p2192
(lp2193
S'C565748'
p2194
asS'604802'
p2195
(lp2196
S'C565747'
p2197
asS'610706'
p2198
(lp2199
S'C565195'
p2200
asS'604805'
p2201
(lp2202
S'C537484'
p2203
asS'128700'
p2204
(lp2205
S'C563015'
p2206
asS'300121'
p2207
(lp2208
S'C531731'
p2209
asS'203700'
p2210
(lp2211
S'D002549'
p2212
asS'300123'
p2213
(lp2214
S'C567485'
p2215
aS'C564712'
p2216
asS'105600'
p2217
(lp2218
S'D000742'
p2219
asS'609261'
p2220
(lp2221
S'C563756'
p2222
asS'609260'
p2223
(lp2224
S'C563757'
p2225
asS'167400'
p2226
(lp2227
S'C563475'
p2228
asS'300523'
p2229
(lp2230
S'C537047'
p2231
asS'133780'
p2232
(lp2233
S'C536382'
p2234
aS'D012178'
p2235
asS'159950'
p2236
(lp2237
S'C537563'
p2238
asS'271550'
p2239
(lp2240
S'C535782'
p2241
asS'607039'
p2242
(lp2243
S'C564633'
p2244
asS'193700'
p2245
(lp2246
S'C535483'
p2247
asS'610170'
p2248
(lp2249
S'C565711'
p2250
asS'612841'
p2251
(lp2252
S'C567554'
p2253
asS'612840'
p2254
(lp2255
S'C567555'
p2256
asS'612847'
p2257
(lp2258
S'C567551'
p2259
asS'179615'
p2260
(lp2261
S'C563691'
p2262
asS'179616'
p2263
(lp2264
S'D016511'
p2265
asS'252940'
p2266
(lp2267
S'D009084'
p2268
asS'246200'
p2269
(lp2270
S'D056731'
p2271
aS'C562709'
p2272
asS'200610'
p2273
(lp2274
S'C536017'
p2275
aS'C563007'
p2276
asS'609049'
p2277
(lp2278
S'C537185'
p2279
asS'603802'
p2280
(lp2281
S'C566332'
p2282
asS'312170'
p2283
(lp2284
S'C564071'
p2285
aS'D015325'
p2286
asS'611383'
p2287
(lp2288
S'D052245'
p2289
asS'609512'
p2290
(lp2291
S'C579991'
p2292
asS'610017'
p2293
(lp2294
S'C537380'
p2295
asS'164500'
p2296
(lp2297
g1615
asS'600638'
p2298
(lp2299
S'C567572'
p2300
asS'601230'
p2301
(lp2302
S'C538218'
p2303
asS'611548'
p2304
(lp2305
S'C566921'
p2306
asS'600631'
p2307
(lp2308
S'D053206'
p2309
asS'611544'
p2310
(lp2311
S'C566923'
p2312
asS'601238'
p2313
(lp2314
S'C563363'
p2315
asS'218400'
p2316
(lp2317
S'C536570'
p2318
asS'158600'
p2319
(lp2320
S'C563560'
p2321
asS'600634'
p2322
(lp2323
S'D015175'
p2324
asS'609192'
p2325
(lp2326
S'D055947'
p2327
asS'609195'
p2328
(lp2329
S'C536862'
p2330
asS'605229'
p2331
(lp2332
S'C537486'
p2333
asS'604335'
p2334
(lp2335
S'D012019'
p2336
asS'605225'
p2337
(lp2338
S'C565353'
p2339
asS'612562'
p2340
(lp2341
S'C567254'
p2342
asS'614372'
p2343
(lp2344
S'C563602'
p2345
asS'612937'
p2346
(lp2347
S'C567857'
p2348
asS'612936'
p2349
(lp2350
S'C567858'
p2351
asS'601548'
p2352
(lp2353
g876
asS'612933'
p2354
(lp2355
S'C538133'
p2356
asS'612932'
p2357
(lp2358
S'C567861'
p2359
asS'607685'
p2360
(lp2361
S'D017681'
p2362
asS'607684'
p2363
(lp2364
S'C537994'
p2365
asS'601543'
p2366
(lp2367
S'C563295'
p2368
asS'604060'
p2369
(lp2370
S'C565828'
p2371
asS'607688'
p2372
(lp2373
S'C564345'
p2374
asS'162830'
p2375
(lp2376
S'C563010'
p2377
asS'601547'
p2378
(lp2379
S'C563294'
p2380
asS'601544'
p2381
(lp2382
S'C567277'
p2383
asS'612938'
p2384
(lp2385
S'C567856'
p2386
asS'600496'
p2387
(lp2388
S'C563933'
p2389
asS'225410'
p2390
(lp2391
S'C567527'
p2392
asS'605820'
p2393
(lp2394
g260
asS'243800'
p2395
(lp2396
S'C535880'
p2397
asS'610370'
p2398
(lp2399
S'C563673'
p2400
asS'610377'
p2401
(lp2402
g312
asS'610374'
p2403
(lp2404
S'C563672'
p2405
asS'242300'
p2406
(lp2407
S'D017490'
p2408
ag1226
asS'264080'
p2409
(lp2410
S'C564871'
p2411
asS'615991'
p2412
(lp2413
S'C567141'
p2414
asS'600121'
p2415
(lp2416
S'C537608'
p2417
asS'107600'
p2418
(lp2419
S'D004476'
p2420
aS'C538225'
p2421
asS'263750'
p2422
(lp2423
S'C537680'
p2424
asS'174200'
p2425
(lp2426
S'C562429'
p2427
asS'603098'
p2428
(lp2429
S'C566410'
p2430
asS'275000'
p2431
(lp2432
S'D006111'
p2433
aS'D013971'
p2434
asS'608658'
p2435
(lp2436
S'C563882'
p2437
asS'127100'
p2438
(lp2439
S'C565081'
p2440
asS'278730'
p2441
(lp2442
S'C562591'
p2443
asS'600799'
p2444
(lp2445
S'D065627'
p2446
asS'604484'
p2447
(lp2448
S'C535717'
p2449
asS'604485'
p2450
(lp2451
S'C567005'
p2452
aS'C564835'
p2453
asS'115310'
p2454
(lp2455
S'C565335'
p2456
asS'164210'
p2457
(lp2458
S'D006053'
p2459
asS'157900'
p2460
(lp2461
S'D020331'
p2462
asS'137440'
p2463
(lp2464
S'D016098'
p2465
aS'C535800'
p2466
asS'272800'
p2467
(lp2468
S'D013661'
p2469
aS'C564782'
p2470
aS'C564785'
p2471
aS'C567601'
p2472
asS'271220'
p2473
(lp2474
S'D009134'
p2475
asS'607464'
p2476
(lp2477
S'C536913'
p2478
asS'615237'
p2479
(lp2480
S'D007418'
p2481
asS'607461'
p2482
(lp2483
S'C535726'
p2484
asS'612622'
p2485
(lp2486
S'C567233'
p2487
asS'612621'
p2488
(lp2489
S'C567234'
p2490
asS'108110'
p2491
(lp2492
S'D001176'
p2493
asS'612627'
p2494
(lp2495
S'C567231'
p2496
asS'612626'
p2497
(lp2498
S'C567232'
p2499
asS'300908'
p2500
(lp2501
S'C567533'
p2502
asS'162900'
p2503
(lp2504
S'C580062'
p2505
aS'D054000'
p2506
asS'611155'
p2507
(lp2508
S'C566998'
p2509
asS'611152'
p2510
(lp2511
S'C567000'
p2512
asS'601815'
p2513
(lp2514
S'C566618'
p2515
asS'614278'
p2516
(lp2517
S'C566640'
p2518
asS'239850'
p2519
(lp2520
S'C535572'
p2521
asS'106410'
p2522
(lp2523
S'C566996'
p2524
asS'614279'
p2525
(lp2526
S'C564109'
p2527
asS'225250'
p2528
(lp2529
S'C567123'
p2530
asS'181440'
p2531
(lp2532
S'D012544'
p2533
asS'115000'
p2534
(lp2535
S'D001145'
p2536
asS'217990'
p2537
(lp2538
S'D061085'
p2539
asS'155310'
p2540
(lp2541
S'C536138'
p2542
aS'D007418'
p2543
aS'C563597'
p2544
asS'232800'
p2545
(lp2546
S'D006014'
p2547
asS'114200'
p2548
(lp2549
S'C567780'
p2550
asS'136000'
p2551
(lp2552
S'C565010'
p2553
asS'233400'
p2554
(lp2555
S'C537286'
p2556
asS'245010'
p2557
(lp2558
S'C537627'
p2559
asS'207800'
p2560
(lp2561
S'D020162'
p2562
asS'610954'
p2563
(lp2564
S'C537403'
p2565
asS'239100'
p2566
(lp2567
S'D010009'
p2568
asS'610951'
p2569
(lp2570
S'C563989'
p2571
asS'234350'
p2572
(lp2573
S'C562477'
p2574
asS'256731'
p2575
(lp2576
S'C575534'
p2577
asS'256730'
p2578
(lp2579
S'C564953'
p2580
aS'C537948'
p2581
aS'D009472'
p2582
asS'300310'
p2583
(lp2584
S'C538057'
p2585
asS'303100'
p2586
(lp2587
S'D015794'
p2588
asS'310600'
p2589
(lp2590
S'C537849'
p2591
asS'119570'
p2592
(lp2593
S'C562950'
p2594
asS'234750'
p2595
(lp2596
S'D006330'
p2597
asS'145900'
p2598
(lp2599
S'D015417'
p2600
asS'612717'
p2601
(lp2602
S'C567193'
p2603
asS'612716'
p2604
(lp2605
S'C562657'
p2606
asS'611022'
p2607
(lp2608
S'C567027'
p2609
asS'612714'
p2610
(lp2611
S'C567195'
p2612
asS'612713'
p2613
(lp2614
S'C567196'
p2615
asS'612712'
p2616
(lp2617
S'C567197'
p2618
asS'300614'
p2619
(lp2620
S'C564472'
p2621
asS'300615'
p2622
(lp2623
S'C563156'
p2624
asS'143400'
p2625
(lp2626
S'C537373'
p2627
asS'252160'
p2628
(lp2629
S'C565373'
p2630
asS'606407'
p2631
(lp2632
S'C564710'
p2633
asS'225320'
p2634
(lp2635
S'C536200'
p2636
asS'606408'
p2637
(lp2638
S'C536193'
p2639
asS'600858'
p2640
(lp2641
S'C563436'
p2642
asS'614386'
p2643
(lp2644
S'C535522'
p2645
aS'C565296'
p2646
asS'614385'
p2647
(lp2648
S'C565777'
p2649
asS'182601'
p2650
(lp2651
S'C536865'
p2652
asS'182600'
p2653
(lp2654
S'C536864'
p2655
asS'300211'
p2656
(lp2657
S'C564565'
p2658
asS'267450'
p2659
(lp2660
S'C566881'
p2661
asS'302960'
p2662
(lp2663
S'D002806'
p2664
aS'C538416'
p2665
asS'187100'
p2666
(lp2667
S'D014096'
p2668
asS'228000'
p2669
(lp2670
S'D055577'
p2671
asS'612448'
p2672
(lp2673
S'C567305'
p2674
asS'266100'
p2675
(lp2676
S'C536254'
p2677
asS'229100'
p2678
(lp2679
S'C537425'
p2680
asS'193300'
p2681
(lp2682
S'D006623'
p2683
asS'184460'
p2684
(lp2685
S'C536943'
p2686
asS'258100'
p2687
(lp2688
S'C537743'
p2689
asS'612437'
p2690
(lp2691
S'C580388'
p2692
asS'258450'
p2693
(lp2694
S'C564926'
p2695
asS'201710'
p2696
(lp2697
S'C537027'
p2698
asS'607317'
p2699
(lp2700
S'C537310'
p2701
asS'126800'
p2702
(lp2703
g410
asS'612438'
p2704
(lp2705
S'C567314'
p2706
asS'259450'
p2707
(lp2708
S'C537406'
p2709
asS'611867'
p2710
(lp2711
S'C567511'
p2712
asS'192200'
p2713
(lp2714
S'D014648'
p2715
asS'180550'
p2716
(lp2717
S'C535684'
p2718
asS'240800'
p2719
(lp2720
S'C537150'
p2721
asS'605676'
p2722
(lp2723
S'C535581'
p2724
asS'600084'
p2725
(lp2726
S'C564004'
p2727
asS'614036'
p2728
(lp2729
S'C566304'
p2730
asS'614492'
p2731
(lp2732
S'C564162'
p2733
asS'614491'
p2734
(lp2735
S'C564161'
p2736
asS'224120'
p2737
(lp2738
S'D000742'
p2739
asS'224690'
p2740
(lp2741
S'C538012'
p2742
asS'158280'
p2743
(lp2744
S'D009041'
p2745
asS'112250'
p2746
(lp2747
S'C536169'
p2748
asS'185000'
p2749
(lp2750
S'C566111'
p2751
asS'277380'
p2752
(lp2753
S'C564747'
p2754
asS'127750'
p2755
(lp2756
S'D020961'
p2757
asS'301050'
p2758
(lp2759
S'D009394'
p2760
asS'100800'
p2761
(lp2762
S'D000130'
p2763
asS'276700'
p2764
(lp2765
S'D020176'
p2766
asS'602365'
p2767
(lp2768
S'D010214'
p2769
asS'261680'
p2770
(lp2771
S'C536654'
p2772
asS'185020'
p2773
(lp2774
S'C535827'
p2775
asS'612389'
p2776
(lp2777
S'C567325'
p2778
asS'174800'
p2779
(lp2780
S'D005359'
p2781
asS'300263'
p2782
(lp2783
S'C537333'
p2784
asS'300262'
p2785
(lp2786
S'C535556'
p2787
asS'300261'
p2788
(lp2789
S'C564551'
p2790
asS'300260'
p2791
(lp2792
S'C537723'
p2793
asS'612380'
p2794
(lp2795
S'C567327'
p2796
asS'300266'
p2797
(lp2798
S'C536643'
p2799
asS'300431'
p2800
(lp2801
S'C538195'
p2802
asS'154600'
p2803
(lp2804
S'C535908'
p2805
asS'201400'
p2806
(lp2807
S'C562707'
p2808
aS'C535668'
p2809
asS'238320'
p2810
(lp2811
S'C562567'
p2812
asS'148050'
p2813
(lp2814
S'C537015'
p2815
asS'253700'
p2816
(lp2817
S'C535900'
p2818
asS'101600'
p2819
(lp2820
S'D000168'
p2821
asS'173100'
p2822
(lp2823
S'C562704'
p2824
asS'612540'
p2825
(lp2826
S'C567261'
p2827
asS'612541'
p2828
(lp2829
S'C567260'
p2830
aS'C567804'
p2831
asS'614723'
p2832
(lp2833
S'C538228'
p2834
asS'600319'
p2835
(lp2836
S'C563959'
p2837
asS'151210'
p2838
(lp2839
S'C563627'
p2840
asS'603563'
p2841
(lp2842
S'C580458'
p2843
asS'266920'
p2844
(lp2845
S'C535463'
p2846
asS'603786'
p2847
(lp2848
S'C535521'
p2849
asS'614879'
p2850
(lp2851
S'C567603'
p2852
asS'260400'
p2853
(lp2854
S'C537330'
p2855
asS'308840'
p2856
(lp2857
g665
aS'C564115'
p2858
asS'613325'
p2859
(lp2860
S'C567643'
p2861
asS'603780'
p2862
(lp2863
S'D011038'
p2864
asS'309530'
p2865
(lp2866
S'C567906'
p2867
asS'154020'
p2868
(lp2869
S'C537152'
p2870
asS'602966'
p2871
(lp2872
S'C566419'
p2873
asS'606708'
p2874
(lp2875
S'C564674'
p2876
asS'602093'
p2877
(lp2878
S'C566579'
p2879
asS'223000'
p2880
(lp2881
S'C562600'
p2882
asS'602096'
p2883
(lp2884
S'C566578'
p2885
asS'602099'
p2886
(lp2887
S'C566576'
p2888
asS'241550'
p2889
(lp2890
S'D018636'
p2891
asS'141750'
p2892
(lp2893
S'C563050'
p2894
asS'158590'
p2895
(lp2896
S'C563561'
p2897
asS'185050'
p2898
(lp2899
S'D010981'
p2900
asS'158350'
p2901
(lp2902
S'D006223'
p2903
aS'D016715'
p2904
asS'612099'
p2905
(lp2906
S'C567418'
p2907
asS'608810'
p2908
(lp2909
S'C563848'
p2910
asS'601942'
p2911
(lp2912
S'C566602'
p2913
asS'611892'
p2914
(lp2915
S'C567500'
p2916
asS'601941'
p2917
(lp2918
S'C566603'
p2919
asS'611515'
p2920
(lp2921
S'C566929'
p2922
asS'607644'
p2923
(lp2924
S'C564361'
p2925
asS'204870'
p2926
(lp2927
S'C535480'
p2928
asS'230500'
p2929
(lp2930
S'D016537'
p2931
asS'601949'
p2932
(lp2933
S'C566601'
p2934
asS'181600'
p2935
(lp2936
S'C537526'
p2937
asS'120150'
p2938
(lp2939
g2049
aS'C565178'
p2940
asS'300750'
p2941
(lp2942
S'C567465'
p2943
asS'166210'
p2944
(lp2945
S'C536042'
p2946
asS'300590'
p2947
(lp2948
S'D003635'
p2949
asS'193520'
p2950
(lp2951
S'D009456'
p2952
asS'615984'
p2953
(lp2954
S'C565916'
p2955
asS'602541'
p2956
(lp2957
S'C566527'
p2958
asS'135150'
p2959
(lp2960
S'D058249'
p2961
asS'153100'
p2962
(lp2963
S'D008209'
p2964
asS'257500'
p2965
(lp2966
S'D010845'
p2967
asS'200110'
p2968
(lp2969
S'C535557'
p2970
asS'611719'
p2971
(lp2972
S'C567126'
p2973
asS'608363'
p2974
(lp2975
S'C567224'
p2976
asS'605913'
p2977
(lp2978
S'C565275'
p2979
asS'604928'
p2980
(lp2981
S'C565733'
p2982
asS'613571'
p2983
(lp2984
S'D054882'
p2985
asS'190300'
p2986
(lp2987
S'C536545'
p2988
asS'118300'
p2989
(lp2990
S'C566136'
p2991
asS'302500'
p2992
(lp2993
S'C563134'
p2994
asS'106250'
p2995
(lp2996
S'C536373'
p2997
asS'612164'
p2998
(lp2999
S'C567404'
p3000
asS'236130'
p3001
(lp3002
S'C535328'
p3003
asS'193007'
p3004
(lp3005
S'D065635'
p3006
asS'612160'
p3007
(lp3008
S'C563181'
p3009
asS'612161'
p3010
(lp3011
S'C567406'
p3012
asS'245900'
p3013
(lp3014
S'D007863'
p3015
asS'613371'
p3016
(lp3017
S'C575214'
p3018
asS'300049'
p3019
(lp3020
S'D054091'
p3021
asS'300048'
p3022
(lp3023
S'C535532'
p3024
asS'184700'
p3025
(lp3026
S'D011085'
p3027
asS'244450'
p3028
(lp3029
S'C537013'
p3030
asS'603945'
p3031
(lp3032
S'C565836'
p3033
asS'603415'
p3034
(lp3035
g2228
asS'161800'
p3036
(lp3037
S'C538350'
p3038
aS'C563529'
p3039
asS'612789'
p3040
(lp3041
S'C567562'
p3042
asS'102150'
p3043
(lp3044
S'C535655'
p3045
asS'139210'
p3046
(lp3047
S'C537620'
p3048
asS'162350'
p3049
(lp3050
S'D009472'
p3051
asS'602413'
p3052
(lp3053
S'D046152'
p3054
asS'235800'
p3055
(lp3056
S'C538320'
p3057
asS'609955'
p3058
(lp3059
S'C537928'
p3060
asS'135400'
p3061
(lp3062
S'C565016'
p3063
asS'612657'
p3064
(lp3065
S'C567206'
p3066
asS'609454'
p3067
(lp3068
S'C563717'
p3069
asS'609456'
p3070
(lp3071
S'C563716'
p3072
asS'609322'
p3073
(lp3074
S'C563738'
p3075
aS'D018335'
p3076
aS'C563737'
p3077
asS'274600'
p3078
(lp3079
S'C536648'
p3080
asS'609452'
p3081
(lp3082
S'C563718'
p3083
asS'105500'
p3084
(lp3085
S'D000690'
p3086
asS'146590'
p3087
(lp3088
S'C536088'
p3089
asS'120970'
p3090
(lp3091
g1509
asS'600808'
p3092
(lp3093
S'C563439'
p3094
asS'240200'
p3095
(lp3096
S'D000224'
p3097
aS'C538429'
p3098
asS'313400'
p3099
(lp3100
S'D010009'
p3101
asS'312060'
p3102
(lp3103
S'C537241'
p3104
aS'C564075'
p3105
aS'C564076'
p3106
asS'312500'
p3107
(lp3108
S'C538362'
p3109
asS'590025'
p3110
(lp3111
g76
asS'604185'
p3112
(lp3113
S'C536386'
p3114
asS'601042'
p3115
(lp3116
S'C563401'
p3117
asS'176450'
p3118
(lp3119
S'C536221'
p3120
asS'610713'
p3121
(lp3122
S'C565193'
p3123
asS'612718'
p3124
(lp3125
S'C567192'
p3126
asS'610717'
p3127
(lp3128
S'C565192'
p3129
asS'311900'
p3130
(lp3131
S'C536942'
p3132
asS'612318'
p3133
(lp3134
S'C563016'
p3135
asS'605039'
p3136
(lp3137
S'C537419'
p3138
asS'606482'
p3139
(lp3140
S'C564703'
p3141
asS'141000'
p3142
(lp3143
S'D059885'
p3144
asS'231900'
p3145
(lp3146
S'C565545'
p3147
asS'600584'
p3148
(lp3149
g2530
asS'608031'
p3150
(lp3151
S'C564300'
p3152
asS'608030'
p3153
(lp3154
S'C567699'
p3155
asS'190160'
p3156
(lp3157
S'C564154'
p3158
asS'608036'
p3159
(lp3160
S'C564299'
p3161
asS'265300'
p3162
(lp3163
S'C537727'
p3164
asS'615962'
p3165
(lp3166
S'C564221'
p3167
asS'604250'
p3168
(lp3169
S'C537248'
p3170
asS'212070'
p3171
(lp3172
S'C562876'
p3173
asS'609528'
p3174
(lp3175
S'C537943'
p3176
asS'609529'
p3177
(lp3178
g1168
asS'304900'
p3179
(lp3180
S'D020790'
p3181
asS'556500'
p3182
(lp3183
S'C564015'
p3184
asS'609033'
p3185
(lp3186
S'C536343'
p3187
asS'609524'
p3188
(lp3189
S'C537932'
p3190
asS'122000'
p3191
(lp3192
S'C562745'
p3193
asS'601223'
p3194
(lp3195
S'C537394'
p3196
asS'610006'
p3197
(lp3198
S'C566487'
p3199
asS'610003'
p3200
(lp3201
S'C537952'
p3202
asS'601224'
p3203
(lp3204
S'C538356'
p3205
asS'175500'
p3206
(lp3207
S'D044483'
p3208
asS'194200'
p3209
(lp3210
S'D014927'
p3211
aS'D011226'
p3212
asS'243150'
p3213
(lp3214
S'C562441'
p3215
asS'611536'
p3216
(lp3217
S'C567075'
p3218
asS'182389'
p3219
(lp3220
S'C565810'
p3221
asS'611535'
p3222
(lp3223
S'D001714'
p3224
aS'C567074'
p3225
asS'604321'
p3226
(lp3227
S'C565792'
p3228
asS'604320'
p3229
(lp3230
S'C536880'
p3231
asS'605258'
p3232
(lp3233
S'D053306'
p3234
asS'605259'
p3235
(lp3236
S'C537195'
p3237
asS'254130'
p3238
(lp3239
S'C537480'
p3240
asS'604326'
p3241
(lp3242
S'C565790'
p3243
asS'605253'
p3244
(lp3245
S'C535301'
p3246
asS'146110'
p3247
(lp3248
S'C562785'
p3249
asS'226500'
p3250
(lp3251
S'C562637'
p3252
asS'601559'
p3253
(lp3254
S'C537502'
p3255
asS'612943'
p3256
(lp3257
S'C567854'
p3258
asS'612940'
p3259
(lp3260
S'C567855'
p3261
asS'607678'
p3262
(lp3263
S'C537985'
p3264
asS'607676'
p3265
(lp3266
S'C564352'
p3267
asS'607677'
p3268
(lp3269
S'C535416'
p3270
asS'601553'
p3271
(lp3272
S'C537698'
p3273
asS'612949'
p3274
(lp3275
S'C567847'
p3276
asS'268220'
p3277
(lp3278
S'D018232'
p3279
asS'607671'
p3280
(lp3281
S'C564354'
p3282
asS'225400'
p3283
(lp3284
S'C536198'
p3285
aS'C536113'
p3286
asS'260005'
p3287
(lp3288
S'C535322'
p3289
asS'605814'
p3290
(lp3291
S'C536398'
p3292
asS'608328'
p3293
(lp3294
S'D056846'
p3295
asS'609140'
p3296
(lp3297
S'C565176'
p3298
asS'609141'
p3299
(lp3300
S'C563788'
p3301
asS'605818'
p3302
(lp3303
S'C565287'
p3304
asS'251850'
p3305
(lp3306
S'C537470'
p3307
asS'307800'
p3308
(lp3309
S'D053098'
p3310
asS'608320'
p3311
(lp3312
S'C564258'
p3313
asS'608323'
p3314
(lp3315
S'C564257'
p3316
asS'557000'
p3317
(lp3318
S'C536353'
p3319
asS'277590'
p3320
(lp3321
S'C536687'
p3322
asS'600151'
p3323
(lp3324
S'C537911'
p3325
asS'604187'
p3326
(lp3327
S'C537482'
p3328
asS'600962'
p3329
(lp3330
S'C563422'
p3331
asS'610140'
p3332
(lp3333
S'C535852'
p3334
asS'600268'
p3335
(lp3336
S'C563969'
p3337
asS'610142'
p3338
(lp3339
S'C565720'
p3340
asS'610143'
p3341
(lp3342
S'C565719'
p3343
asS'129400'
p3344
(lp3345
S'C535289'
p3346
aS'C565069'
p3347
asS'219050'
p3348
(lp3349
S'D003456'
p3350
asS'614128'
p3351
(lp3352
S'C563641'
p3353
asS'600794'
p3354
(lp3355
S'C563443'
p3356
asS'600795'
p3357
(lp3358
g2292
asS'179605'
p3359
(lp3360
S'C536309'
p3361
asS'604498'
p3362
(lp3363
S'C535982'
p3364
asS'255600'
p3365
(lp3366
S'C564968'
p3367
asS'600791'
p3368
(lp3369
S'C566366'
p3370
asS'600792'
p3371
(lp3372
S'C563444'
p3373
asS'179600'
p3374
(lp3375
S'D011928'
p3376
asS'158901'
p3377
(lp3378
S'C563557'
p3379
asS'601316'
p3380
(lp3381
S'C563354'
p3382
asS'606812'
p3383
(lp3384
S'C538191'
p3385
asS'164200'
p3386
(lp3387
S'C563160'
p3388
asS'214300'
p3389
(lp3390
S'C536888'
p3391
asS'600373'
p3392
(lp3393
S'C536434'
p3394
asS'607411'
p3395
(lp3396
S'D004374'
p3397
asS'600376'
p3398
(lp3399
S'C537139'
p3400
aS'C563358'
p3401
asS'144750'
p3402
(lp3403
S'C536748'
p3404
asS'143870'
p3405
(lp3406
S'C562790'
p3407
asS'608149'
p3408
(lp3409
S'C536471'
p3410
asS'302350'
p3411
(lp3412
S'C538336'
p3413
asS'119300'
p3414
(lp3415
S'C536528'
p3416
asS'611147'
p3417
(lp3418
S'C567001'
p3419
asS'600969'
p3420
(lp3421
S'C535503'
p3422
asS'607785'
p3423
(lp3424
S'D054429'
p3425
aS'D015477'
p3426
asS'169500'
p3427
(lp3428
S'C566813'
p3429
asS'234500'
p3430
(lp3431
S'D006250'
p3432
asS'183600'
p3433
(lp3434
S'C567893'
p3435
asS'600759'
p3436
(lp3437
S'C536596'
p3438
asS'614265'
p3439
(lp3440
S'C580002'
p3441
asS'614266'
p3442
(lp3443
S'C562730'
p3444
aS'D001471'
p3445
asS'608565'
p3446
(lp3447
S'C563908'
p3448
asS'182250'
p3449
(lp3450
S'C537343'
p3451
asS'122860'
p3452
(lp3453
S'C567275'
p3454
asS'607078'
p3455
(lp3456
S'C535505'
p3457
asS'600576'
p3458
(lp3459
S'D013771'
p3460
asS'602685'
p3461
(lp3462
S'C566429'
p3463
asS'608448'
p3464
(lp3465
S'C563926'
p3466
asS'268400'
p3467
(lp3468
g2864
asS'136630'
p3469
(lp3470
S'C566980'
p3471
asS'229050'
p3472
(lp3473
S'C562799'
p3474
asS'168860'
p3475
(lp3476
S'C535568'
p3477
asS'600204'
p3478
(lp3479
S'C535502'
p3480
asS'109650'
p3481
(lp3482
S'D001528'
p3483
asS'607250'
p3484
(lp3485
S'C537313'
p3486
asS'607523'
p3487
(lp3488
g103
asS'228900'
p3489
(lp3490
S'C537931'
p3491
asS'607258'
p3492
(lp3493
S'C564600'
p3494
asS'607259'
p3495
(lp3496
S'C564599'
p3497
asS'600208'
p3498
(lp3499
S'C537831'
p3500
asS'600209'
p3501
(lp3502
S'C563975'
p3503
asS'147710'
p3504
(lp3505
S'D007443'
p3506
asS'608389'
p3507
(lp3508
S'C564248'
p3509
asS'607095'
p3510
(lp3511
S'C538256'
p3512
asS'173800'
p3513
(lp3514
S'D011045'
p3515
asS'611031'
p3516
(lp3517
S'C567026'
p3518
asS'607091'
p3519
(lp3520
S'C564625'
p3521
asS'153870'
p3522
(lp3523
S'C537833'
p3524
asS'615026'
p3525
(lp3526
S'D012257'
p3527
asS'245570'
p3528
(lp3529
S'D018887'
p3530
aS'C563392'
p3531
aS'D019305'
p3532
asS'242840'
p3533
(lp3534
S'C535566'
p3535
asS'218040'
p3536
(lp3537
g282
asS'180700'
p3538
(lp3539
S'C562492'
p3540
asS'212350'
p3541
(lp3542
S'C538280'
p3543
asS'606785'
p3544
(lp3545
S'C536213'
p3546
asS'606787'
p3547
(lp3548
S'C564658'
p3549
asS'300600'
p3550
(lp3551
S'C562664'
p3552
asS'272120'
p3553
(lp3554
S'D013398'
p3555
asS'245480'
p3556
(lp3557
S'C562873'
p3558
asS'300605'
p3559
(lp3560
S'C564475'
p3561
asS'612539'
p3562
(lp3563
S'C567262'
p3564
asS'300607'
p3565
(lp3566
S'C564474'
p3567
asS'209880'
p3568
(lp3569
g2163
asS'188570'
p3570
(lp3571
S'C567934'
p3572
asS'228980'
p3573
(lp3574
S'C565564'
p3575
asS'601214'
p3576
(lp3577
S'C538346'
p3578
asS'268310'
p3579
(lp3580
S'C535863'
p3581
asS'606416'
p3582
(lp3583
S'D056587'
p3584
asS'207720'
p3585
(lp3586
S'D020182'
p3587
asS'172150'
p3588
(lp3589
S'C566803'
p3590
asS'612067'
p3591
(lp3592
S'C567430'
p3593
asS'207900'
p3594
(lp3595
S'D056807'
p3596
asS'239000'
p3597
(lp3598
S'C537701'
p3599
asS'607313'
p3600
(lp3601
S'C564593'
p3602
asS'126340'
p3603
(lp3604
g2443
aS'D054463'
p3605
asS'148190'
p3606
(lp3607
S'C537022'
p3608
asS'266130'
p3609
(lp3610
S'C536835'
p3611
asS'103900'
p3612
(lp3613
S'C563177'
p3614
asS'603165'
p3615
(lp3616
S'D003876'
p3617
aS'C566404'
p3618
asS'270600'
p3619
(lp3620
S'C537481'
p3621
asS'612421'
p3622
(lp3623
S'C567317'
p3624
asS'158170'
p3625
(lp3626
S'C538024'
p3627
asS'612423'
p3628
(lp3629
S'C562725'
p3630
asS'607323'
p3631
(lp3632
S'D004370'
p3633
asS'607324'
p3634
(lp3635
S'C564590'
p3636
asS'603174'
p3637
(lp3638
S'D020138'
p3639
aS'C566403'
p3640
asS'604004'
p3641
(lp3642
S'C536141'
p3643
asS'606232'
p3644
(lp3645
S'C536801'
p3646
asS'312750'
p3647
(lp3648
S'D015518'
p3649
aS'C567576'
p3650
aS'C567442'
p3651
aS'C564063'
p3652
asS'114500'
p3653
(lp3654
S'D015179'
p3655
asS'184250'
p3656
(lp3657
S'C537501'
p3658
asS'220120'
p3659
(lp3660
S'C535767'
p3661
asS'590095'
p3662
(lp3663
g416
asS'184253'
p3664
(lp3665
S'C535794'
p3666
asS'184255'
p3667
(lp3668
S'C535793'
p3669
asS'108300'
p3670
(lp3671
S'C537492'
p3672
asS'311050'
p3673
(lp3674
S'C537125'
p3675
asS'308050'
p3676
(lp3677
S'C562515'
p3678
asS'103580'
p3679
(lp3680
S'D011547'
p3681
asS'606227'
p3682
(lp3683
g940
asS'614486'
p3684
(lp3685
S'C566057'
p3686
asS'175505'
p3687
(lp3688
S'C566775'
p3689
asS'225750'
p3690
(lp3691
S'C535607'
p3692
asS'225753'
p3693
(lp3694
S'C536716'
p3695
asS'245000'
p3696
(lp3697
g2769
asS'608105'
p3698
(lp3699
S'C535499'
p3700
asS'603284'
p3701
(lp3702
S'C566394'
p3703
asS'179450'
p3704
(lp3705
S'C566725'
p3706
asS'201200'
p3707
(lp3708
S'C538187'
p3709
asS'223360'
p3710
(lp3711
S'C535600'
p3712
asS'551200'
p3713
(lp3714
S'C564016'
p3715
asS'148820'
p3716
(lp3717
S'D014849'
p3718
asS'309555'
p3719
(lp3720
S'C536759'
p3721
asS'276710'
p3722
(lp3723
g2766
asS'136760'
p3724
(lp3725
S'C538065'
p3726
asS'126900'
p3727
(lp3728
S'D004387'
p3729
asS'608957'
p3730
(lp3731
S'C563824'
p3732
asS'609040'
p3733
(lp3734
S'C563808'
p3735
asS'612349'
p3736
(lp3737
S'D010661'
p3738
asS'257270'
p3739
(lp3740
g979
asS'606129'
p3741
(lp3742
S'C536130'
p3743
asS'261670'
p3744
(lp3745
S'C536176'
p3746
asS'612394'
p3747
(lp3748
S'C567320'
p3749
asS'163950'
p3750
(lp3751
S'D009634'
p3752
ag309
asS'609165'
p3753
(lp3754
S'C563781'
p3755
asS'231680'
p3756
(lp3757
S'D054069'
p3758
asS'148040'
p3759
(lp3760
g808
asS'601820'
p3761
(lp3762
S'D044903'
p3763
aS'D046768'
p3764
asS'612556'
p3765
(lp3766
S'C567258'
p3767
asS'140500'
p3768
(lp3769
g2597
asS'193400'
p3770
(lp3771
S'D056725'
p3772
asS'169300'
p3773
(lp3774
S'D005660'
p3775
asS'166300'
p3776
(lp3777
S'C567171'
p3778
asS'608219'
p3779
(lp3780
S'C564273'
p3781
asS'304340'
p3782
(lp3783
S'C535773'
p3784
asS'614732'
p3785
(lp3786
S'C564543'
p3787
asS'164185'
p3788
(lp3789
S'D010390'
p3790
asS'219900'
p3791
(lp3792
g31
asS'304120'
p3793
(lp3794
S'C538089'
p3795
asS'610549'
p3796
(lp3797
S'C562710'
p3798
asS'247640'
p3799
(lp3800
S'C565429'
p3801
asS'120502'
p3802
(lp3803
S'C565171'
p3804
asS'201300'
p3805
(lp3806
g59
asS'156580'
p3807
(lp3808
S'C537323'
p3809
asS'230300'
p3810
(lp3811
S'D005687'
p3812
asS'182410'
p3813
(lp3814
S'D018860'
p3815
asS'601764'
p3816
(lp3817
S'D020936'
p3818
asS'500001'
p3819
(lp3820
S'C536024'
p3821
asS'500000'
p3822
(lp3823
S'C535584'
p3824
asS'500003'
p3825
(lp3826
S'C564025'
p3827
asS'500005'
p3828
(lp3829
S'C564024'
p3830
asS'500004'
p3831
(lp3832
S'D052245'
p3833
asS'551500'
p3834
(lp3835
S'C537396'
p3836
asS'601954'
p3837
(lp3838
S'C566599'
p3839
asS'300813'
p3840
(lp3841
S'D013584'
p3842
asS'173600'
p3843
(lp3844
g1698
asS'601952'
p3845
(lp3846
S'C566600'
p3847
asS'162210'
p3848
(lp3849
S'C563523'
p3850
asS'136140'
p3851
(lp3852
S'C537062'
p3853
asS'177735'
p3854
(lp3855
g593
asS'615512'
p3856
(lp3857
S'C566029'
p3858
asS'615513'
p3859
(lp3860
S'C585640'
p3861
asS'306700'
p3862
(lp3863
S'D006467'
p3864
asS'615517'
p3865
(lp3866
S'C565020'
p3867
asS'193530'
p3868
(lp3869
g1328
asS'253600'
p3870
(lp3871
S'C535895'
p3872
asS'253601'
p3873
(lp3874
S'C535899'
p3875
asS'194070'
p3876
(lp3877
S'D009396'
p3878
asS'194072'
p3879
(lp3880
S'D017624'
p3881
asS'611705'
p3882
(lp3883
S'C567129'
p3884
asS'164745'
p3885
(lp3886
S'C567664'
p3887
asS'609464'
p3888
(lp3889
S'C563714'
p3890
asS'200100'
p3891
(lp3892
S'D000012'
p3893
asS'613493'
p3894
(lp3895
S'C566275'
p3896
asS'250800'
p3897
(lp3898
S'C537841'
p3899
asS'257850'
p3900
(lp3901
S'C567605'
p3902
asS'600974'
p3903
(lp3904
S'C563417'
p3905
asS'600975'
p3906
(lp3907
S'C536824'
p3908
asS'185620'
p3909
(lp3910
g75
asS'600977'
p3911
(lp3912
S'C563415'
p3913
asS'117360'
p3914
(lp3915
S'C537206'
p3916
asS'600971'
p3917
(lp3918
S'C563418'
p3919
asS'600972'
p3920
(lp3921
S'C536016'
p3922
asS'607453'
p3923
(lp3924
S'C564399'
p3925
asS'115470'
p3926
(lp3927
S'C535918'
p3928
asS'236690'
p3929
(lp3930
S'D006850'
p3931
asS'260300'
p3932
(lp3933
S'C538104'
p3934
asS'216411'
p3935
(lp3936
S'D003057'
p3937
asS'610498'
p3938
(lp3939
S'C566468'
p3940
asS'612567'
p3941
(lp3942
S'C567251'
p3943
asS'610623'
p3944
(lp3945
S'C535344'
p3946
asS'251600'
p3947
(lp3948
S'C565377'
p3949
asS'223100'
p3950
(lp3951
S'C562601'
p3952
asS'102400'
p3953
(lp3954
S'D030981'
p3955
asS'236100'
p3956
(lp3957
S'D016142'
p3958
aS'C562573'
p3959
asS'590085'
p3960
(lp3961
g3833
asS'602429'
p3962
(lp3963
S'C566551'
p3964
asS'612376'
p3965
(lp3966
S'D015473'
p3967
asS'612371'
p3968
(lp3969
S'C567529'
p3970
asS'309520'
p3971
(lp3972
S'C537724'
p3973
asS'153840'
p3974
(lp3975
S'C537832'
p3976
asS'167790'
p3977
(lp3978
S'C564276'
p3979
asS'141900'
p3980
(lp3981
S'D000755'
p3982
asS'602136'
p3983
(lp3984
S'D015211'
p3985
ag1498
asS'610199'
p3986
(lp3987
S'C565705'
p3988
asS'602134'
p3989
(lp3990
S'C536546'
p3991
asS'605727'
p3992
(lp3993
S'C565302'
p3994
asS'610213'
p3995
(lp3996
S'C565700'
p3997
asS'609338'
p3998
(lp3999
S'C563733'
p4000
asS'129750'
p4001
(lp4002
S'C536185'
p4003
asS'609441'
p4004
(lp4005
S'C537913'
p4006
asS'609446'
p4007
(lp4008
S'C563719'
p4009
asS'610725'
p4010
(lp4011
S'C535761'
p4012
asS'302600'
p4013
(lp4014
S'C537314'
p4015
asS'613886'
p4016
(lp4017
S'C563938'
p4018
asS'604864'
p4019
(lp4020
S'C565740'
p4021
asS'611634'
p4022
(lp4023
S'C566901'
p4024
asS'611637'
p4025
(lp4026
S'C566900'
p4027
asS'218330'
p4028
(lp4029
S'C562966'
p4030
asS'611631'
p4031
(lp4032
S'C566902'
p4033
asS'611630'
p4034
(lp4035
S'C566903'
p4036
asS'191170'
p4037
(lp4038
S'D012516'
p4039
ag1845
asS'232220'
p4040
(lp4041
S'C562594'
p4042
asS'173900'
p4043
(lp4044
S'D016891'
p4045
asS'610738'
p4046
(lp4047
S'C537592'
p4048
asS'222748'
p4049
(lp4050
S'C562815'
p4051
aS'D054067'
p4052
asS'118200'
p4053
(lp4054
S'D002607'
p4055
asS'609200'
p4056
(lp4057
S'C563775'
p4058
asS'602044'
p4059
(lp4060
S'D009767'
p4061
asS'270400'
p4062
(lp4063
S'D019082'
p4064
asS'227050'
p4065
(lp4066
S'C536980'
p4067
asS'608695'
p4068
(lp4069
S'C563874'
p4070
asS'605027'
p4071
(lp4072
S'D008228'
p4073
asS'605021'
p4074
(lp4075
S'D004831'
p4076
asS'605020'
p4077
(lp4078
g205
asS'204110'
p4079
(lp4080
S'C536604'
p4081
asS'237450'
p4082
(lp4083
S'D006933'
p4084
asS'609536'
p4085
(lp4086
S'C537005'
p4087
asS'609535'
p4088
(lp4089
S'C563703'
p4090
asS'203100'
p4091
(lp4092
S'C537728'
p4093
asS'203450'
p4094
(lp4095
S'D038261'
p4096
asS'109120'
p4097
(lp4098
S'C566234'
p4099
asS'608553'
p4100
(lp4101
S'C536603'
p4102
asS'185900'
p4103
(lp4104
S'C566096'
p4105
asS'611928'
p4106
(lp4107
S'C567456'
p4108
asS'609029'
p4109
(lp4110
S'C535733'
p4111
asS'601228'
p4112
(lp4113
S'C563365'
p4114
asS'253250'
p4115
(lp4116
S'D050336'
p4117
asS'248300'
p4118
(lp4119
S'D007645'
p4120
asS'255125'
p4121
(lp4122
S'C564972'
p4123
asS'613779'
p4124
(lp4125
S'C565169'
p4126
asS'144200'
p4127
(lp4128
S'D053546'
p4129
aS'C564171'
p4130
aS'D015776'
p4131
asS'609026'
p4132
(lp4133
S'C563812'
p4134
asS'112262'
p4135
(lp4136
g550
asS'611528'
p4137
(lp4138
S'C566925'
p4139
asS'611521'
p4140
(lp4141
S'C566928'
p4142
asS'601458'
p4143
(lp4144
S'C563310'
p4145
asS'611523'
p4146
(lp4147
S'C548074'
p4148
asS'223800'
p4149
(lp4150
g2484
asS'601780'
p4151
(lp4152
S'C566627'
p4153
asS'612225'
p4154
(lp4155
S'C567393'
p4156
asS'248900'
p4157
(lp4158
S'C565409'
p4159
asS'605249'
p4160
(lp4161
S'C535507'
p4162
asS'600510'
p4163
(lp4164
S'C563184'
p4165
asS'604319'
p4166
(lp4167
S'C538371'
p4168
asS'236670'
p4169
(lp4170
S'D058494'
p4171
asS'190685'
p4172
(lp4173
S'D004314'
p4174
aS'C566024'
p4175
aS'C566025'
p4176
aS'C566023'
p4177
asS'601146'
p4178
(lp4179
S'C537089'
p4180
ag2295
asS'601147'
p4181
(lp4182
S'C567757'
p4183
asS'601144'
p4184
(lp4185
S'D053840'
p4186
aS'C567557'
p4187
asS'194190'
p4188
(lp4189
S'D054877'
p4190
aS'C536737'
p4191
asS'114030'
p4192
(lp4193
S'C537421'
p4194
asS'612951'
p4195
(lp4196
S'C567845'
p4197
asS'612953'
p4198
(lp4199
S'C567844'
p4200
asS'612952'
p4201
(lp4202
S'C535608'
p4203
asS'612955'
p4204
(lp4205
S'C567842'
p4206
asS'612954'
p4207
(lp4208
S'C567843'
p4209
asS'211480'
p4210
(lp4211
S'D013919'
p4212
asS'612956'
p4213
(lp4214
S'C567841'
p4215
asS'607665'
p4216
(lp4217
S'C536922'
p4218
asS'278150'
p4219
(lp4220
S'C566950'
p4221
asS'257300'
p4222
(lp4223
S'C536987'
p4224
asS'613508'
p4225
(lp4226
S'D007010'
p4227
asS'610156'
p4228
(lp4229
S'C536984'
p4230
asS'610155'
p4231
(lp4232
S'C565715'
p4233
asS'270970'
p4234
(lp4235
S'C567489'
p4236
asS'122100'
p4237
(lp4238
S'D053559'
p4239
asS'609153'
p4240
(lp4241
S'C563785'
p4242
asS'609152'
p4243
(lp4244
S'C563786'
p4245
asS'605805'
p4246
(lp4247
S'C565291'
p4248
asS'212840'
p4249
(lp4250
S'C565870'
p4251
asS'605803'
p4252
(lp4253
S'C565293'
p4254
asS'123450'
p4255
(lp4256
S'D003410'
p4257
asS'607116'
p4258
(lp4259
S'C564622'
p4260
asS'600143'
p4261
(lp4262
S'C537952'
p4263
asS'600142'
p4264
(lp4265
S'C563990'
p4266
asS'611451'
p4267
(lp4268
S'C566951'
p4269
asS'613608'
p4270
(lp4271
S'C567098'
p4272
asS'115660'
p4273
(lp4274
S'C537955'
p4275
asS'174770'
p4276
(lp4277
S'C566780'
p4278
asS'136800'
p4279
(lp4280
S'C535478'
p4281
asS'611458'
p4282
(lp4283
g2931
asS'612381'
p4284
(lp4285
S'C567326'
p4286
asS'601499'
p4287
(lp4288
S'C535680'
p4289
asS'601369'
p4290
(lp4291
S'C563335'
p4292
asS'608799'
p4293
(lp4294
S'C535743'
p4295
asS'609056'
p4296
(lp4297
S'C563799'
p4298
asS'164230'
p4299
(lp4300
S'D009771'
p4301
asS'601363'
p4302
(lp4303
S'C563336'
p4304
asS'601492'
p4305
(lp4306
S'C563209'
p4307
asS'601493'
p4308
(lp4309
S'C563307'
p4310
asS'601494'
p4311
(lp4312
g300
asS'601367'
p4313
(lp4314
S'D020521'
p4315
aS'D002544'
p4316
asS'147891'
p4317
(lp4318
S'C535540'
p4319
asS'607554'
p4320
(lp4321
S'C563817'
p4322
asS'310460'
p4323
(lp4324
S'C564091'
p4325
asS'109400'
p4326
(lp4327
S'D001478'
p4328
asS'168300'
p4329
(lp4330
S'D020967'
p4331
asS'600363'
p4332
(lp4333
S'C536866'
p4334
asS'124480'
p4335
(lp4336
S'C567274'
p4337
asS'600364'
p4338
(lp4339
g2879
asS'608776'
p4340
(lp4341
S'C535750'
p4342
asS'300018'
p4343
(lp4344
S'C535601'
p4345
asS'100730'
p4346
(lp4347
g309
asS'107650'
p4348
(lp4349
S'D020181'
p4350
asS'607791'
p4351
(lp4352
S'C564333'
p4353
asS'168550'
p4354
(lp4355
S'C566825'
p4356
asS'607476'
p4357
(lp4358
S'C564391'
p4359
asS'113620'
p4360
(lp4361
S'D019280'
p4362
asS'608779'
p4363
(lp4364
S'C535754'
p4365
asS'226980'
p4366
(lp4367
S'C536739'
p4368
asS'605013'
p4369
(lp4370
S'C537555'
p4371
asS'156500'
p4372
(lp4373
S'C537352'
p4374
asS'225500'
p4375
(lp4376
S'D004613'
p4377
aS'C538472'
p4378
asS'612119'
p4379
(lp4380
S'C562603'
p4381
asS'170100'
p4382
(lp4383
S'D056732'
p4384
asS'612881'
p4385
(lp4386
S'C567876'
p4387
asS'310468'
p4388
(lp4389
S'C562901'
p4390
asS'169150'
p4391
(lp4392
g3361
asS'164300'
p4393
(lp4394
S'D039141'
p4395
asS'237300'
p4396
(lp4397
S'D020165'
p4398
asS'610217'
p4399
(lp4400
S'C565699'
p4401
aS'C548029'
p4402
asS'613912'
p4403
(lp4404
S'C565027'
p4405
asS'258900'
p4406
(lp4407
S'C537136'
p4408
asS'218600'
p4409
(lp4410
S'C536788'
p4411
asS'233420'
p4412
(lp4413
S'C565537'
p4414
asS'600211'
p4415
(lp4416
S'C563974'
p4417
asS'300718'
p4418
(lp4419
S'C567468'
p4420
asS'312100'
p4421
(lp4422
S'C538435'
p4423
asS'212720'
p4424
(lp4425
S'C536028'
p4426
asS'259500'
p4427
(lp4428
g4039
asS'249230'
p4429
(lp4430
S'C536140'
p4431
asS'607085'
p4432
(lp4433
S'C564628'
p4434
asS'607084'
p4435
(lp4436
S'C564629'
p4437
asS'300636'
p4438
(lp4439
S'C567070'
p4440
asS'607086'
p4441
(lp4442
S'D017545'
p4443
aS'C562834'
p4444
asS'607080'
p4445
(lp4446
S'C567773'
p4447
asS'300633'
p4448
(lp4449
S'C567482'
p4450
asS'137550'
p4451
(lp4452
S'C536819'
p4453
asS'256710'
p4454
(lp4455
S'C536203'
p4456
asS'177850'
p4457
(lp4458
S'D011561'
p4459
asS'607088'
p4460
(lp4461
S'C564626'
p4462
asS'611284'
p4463
(lp4464
S'C566973'
p4465
asS'125420'
p4466
(lp4467
S'D003784'
p4468
asS'611283'
p4469
(lp4470
S'C535541'
p4471
asS'604379'
p4472
(lp4473
S'C536973'
p4474
asS'206600'
p4475
(lp4476
S'D007007'
p4477
asS'106500'
p4478
(lp4479
S'C562461'
p4480
asS'268305'
p4481
(lp4482
S'C535677'
p4483
asS'608545'
p4484
(lp4485
S'C563914'
p4486
asS'613825'
p4487
(lp4488
S'C565165'
p4489
asS'268300'
p4490
(lp4491
S'C535687'
p4492
asS'229600'
p4493
(lp4494
S'D005633'
p4495
asS'610805'
p4496
(lp4497
S'C563661'
p4498
asS'208900'
p4499
(lp4500
S'D001260'
p4501
aS'C566865'
p4502
asS'606933'
p4503
(lp4504
g4093
aS'C537729'
p4505
aS'C564645'
p4506
asS'174000'
p4507
(lp4508
S'C536137'
p4509
asS'143465'
p4510
(lp4511
S'D001289'
p4512
asS'267300'
p4513
(lp4514
S'C562897'
p4515
asS'163890'
p4516
(lp4517
g2757
asS'217400'
p4518
(lp4519
S'C535473'
p4520
asS'606201'
p4521
(lp4522
g1517
aS'C563421'
p4523
asS'145701'
p4524
(lp4525
S'C536605'
p4526
asS'145700'
p4527
(lp4528
S'C538389'
p4529
asS'614296'
p4530
(lp4531
S'C565631'
p4532
asS'170650'
p4533
(lp4534
S'D010520'
p4535
asS'307000'
p4536
(lp4537
S'C536078'
p4538
aS'C564408'
p4539
asS'249300'
p4540
(lp4541
g186
asS'612416'
p4542
(lp4543
S'D005173'
p4544
asS'603147'
p4545
(lp4546
S'C535741'
p4547
asS'161000'
p4548
(lp4549
S'C538331'
p4550
asS'176780'
p4551
(lp4552
S'D012005'
p4553
asS'607330'
p4554
(lp4555
S'C537880'
p4556
asS'300700'
p4557
(lp4558
S'C537042'
p4559
asS'241800'
p4560
(lp4561
S'C537158'
p4562
asS'300704'
p4563
(lp4564
S'C567477'
p4565
asS'300705'
p4566
(lp4567
S'C563140'
p4568
asS'300706'
p4569
(lp4570
S'C567476'
p4571
asS'224100'
p4572
(lp4573
g2739
asS'609946'
p4574
(lp4575
S'C566498'
p4576
asS'186550'
p4577
(lp4578
S'C566090'
p4579
asS'220110'
p4580
(lp4581
g75
asS'220111'
p4582
(lp4583
S'C537004'
p4584
asS'132450'
p4585
(lp4586
S'C565046'
p4587
asS'606688'
p4588
(lp4589
S'C564678'
p4590
asS'614037'
p4591
(lp4592
S'C565439'
p4593
asS'258870'
p4594
(lp4595
S'D015799'
p4596
asS'186500'
p4597
(lp4598
g189
asS'611274'
p4599
(lp4600
S'C566977'
p4601
asS'217080'
p4602
(lp4603
S'C000596385'
p4604
asS'127600'
p4605
(lp4606
S'C562551'
p4607
asS'606685'
p4608
(lp4609
S'C564679'
p4610
asS'187900'
p4611
(lp4612
S'C566060'
p4613
asS'223370'
p4614
(lp4615
S'C535718'
p4616
asS'611276'
p4617
(lp4618
S'C566976'
p4619
asS'609782'
p4620
(lp4621
S'C565229'
p4622
asS'610997'
p4623
(lp4624
S'C567031'
p4625
asS'130080'
p4626
(lp4627
S'C562626'
p4628
asS'188030'
p4629
(lp4630
S'D016553'
p4631
asS'613179'
p4632
(lp4633
S'C562587'
p4634
asS'601812'
p4635
(lp4636
S'C536653'
p4637
asS'601813'
p4638
(lp4639
S'C566619'
p4640
asS'613172'
p4641
(lp4642
S'C567725'
p4643
asS'230450'
p4644
(lp4645
S'C565557'
p4646
asS'613177'
p4647
(lp4648
S'C567716'
p4649
asS'165300'
p4650
(lp4651
S'C537128'
p4652
asS'613192'
p4653
(lp4654
S'C567714'
p4655
asS'612561'
p4656
(lp4657
S'C538442'
p4658
asS'310400'
p4659
(lp4660
S'D020914'
p4661
asS'612563'
p4662
(lp4663
S'C567253'
p4664
asS'612566'
p4665
(lp4666
S'C567252'
p4667
asS'263800'
p4668
(lp4669
S'D053579'
p4670
asS'609460'
p4671
(lp4672
S'C537279'
p4673
asS'266120'
p4674
(lp4675
S'C564859'
p4676
asS'608591'
p4677
(lp4678
S'C535414'
p4679
asS'603543'
p4680
(lp4681
S'C535903'
p4682
asS'603546'
p4683
(lp4684
S'C535784'
p4685
asS'608251'
p4686
(lp4687
S'C562465'
p4688
asS'613280'
p4689
(lp4690
S'C548016'
p4691
asS'214370'
p4692
(lp4693
S'C538078'
p4694
asS'613286'
p4695
(lp4696
S'C567654'
p4697
asS'613287'
p4698
(lp4699
S'C567653'
p4700
asS'179850'
p4701
(lp4702
S'C562924'
p4703
asS'605275'
p4704
(lp4705
S'C548081'
p4706
asS'305400'
p4707
(lp4708
S'C535331'
p4709
asS'601650'
p4710
(lp4711
S'C566646'
p4712
asS'116800'
p4713
(lp4714
S'C535342'
p4715
asS'500007'
p4716
(lp4717
g77
asS'171000'
p4718
(lp4719
S'D010411'
p4720
asS'611107'
p4721
(lp4722
S'C567008'
p4723
asS'220500'
p4724
(lp4725
S'C563052'
p4726
asS'603324'
p4727
(lp4728
S'C564609'
p4729
asS'130600'
p4730
(lp4731
S'C565058'
p4732
asS'161950'
p4733
(lp4734
S'D005922'
p4735
asS'312920'
p4736
(lp4737
S'C536857'
p4738
asS'193500'
p4739
(lp4740
S'D014849'
p4741
asS'250790'
p4742
(lp4743
S'C567102'
p4744
asS'235000'
p4745
(lp4746
S'C565524'
p4747
asS'610283'
p4748
(lp4749
S'C564597'
p4750
asS'158330'
p4751
(lp4752
S'C567186'
p4753
asS'227260'
p4754
(lp4755
S'C536385'
p4756
asS'119540'
p4757
(lp4758
S'D002972'
p4759
asS'607844'
p4760
(lp4761
S'D010023'
p4762
asS'607606'
p4763
(lp4764
g4130
asS'602092'
p4765
(lp4766
S'C566580'
p4767
asS'607847'
p4768
(lp4769
S'C564320'
p4770
asS'611863'
p4771
(lp4772
S'C567512'
p4773
asS'218030'
p4774
(lp4775
S'C537422'
p4776
asS'611868'
p4777
(lp4778
S'C567510'
p4779
asS'615501'
p4780
(lp4781
S'C565374'
p4782
asS'153470'
p4783
(lp4784
S'C537717'
p4785
asS'215150'
p4786
(lp4787
g4431
asS'120200'
p4788
(lp4789
S'D003103'
p4790
asS'611731'
p4791
(lp4792
S'D005736'
p4793
aS'C566778'
p4794
asS'614921'
p4795
(lp4796
S'C567859'
p4797
asS'276900'
p4798
(lp4799
S'C564755'
p4800
asS'276901'
p4801
(lp4802
S'C536490'
p4803
asS'276902'
p4804
(lp4805
S'D052245'
p4806
asS'276903'
p4807
(lp4808
g4800
asS'276904'
p4809
(lp4810
S'C564753'
p4811
asS'147950'
p4812
(lp4813
S'D017436'
p4814
asS'600965'
p4815
(lp4816
g4523
asS'304110'
p4817
(lp4818
S'C536456'
p4819
asS'219800'
p4820
(lp4821
S'D003554'
p4822
aS'C565655'
p4823
asS'236680'
p4824
(lp4825
S'C565504'
p4826
asS'610489'
p4827
(lp4828
S'C566469'
p4829
asS'550500'
p4830
(lp4831
S'C564018'
p4832
asS'602433'
p4833
(lp4834
S'C566550'
p4835
asS'605309'
p4836
(lp4837
S'C565342'
p4838
asS'113750'
p4839
(lp4840
S'C567300'
p4841
asS'310200'
p4842
(lp4843
S'D020388'
p4844
asS'210500'
p4845
(lp4846
S'D001656'
p4847
asS'130100'
p4848
(lp4849
S'C536202'
p4850
asS'309550'
p4851
(lp4852
S'C564105'
p4853
aS'D016649'
p4854
asS'113200'
p4855
(lp4856
S'C562420'
p4857
asS'304500'
p4858
(lp4859
S'C564433'
p4860
asS'612347'
p4861
(lp4862
S'C567343'
p4863
asS'612348'
p4864
(lp4865
S'C567341'
p4866
asS'227600'
p4867
(lp4868
S'D005171'
p4869
asS'101400'
p4870
(lp4871
S'D000168'
p4872
aS'C566325'
p4873
asS'125700'
p4874
(lp4875
g3181
asS'602124'
p4876
(lp4877
S'C566572'
p4878
asS'121820'
p4879
(lp4880
S'C535477'
p4881
asS'609308'
p4882
(lp4883
g4171
asS'609309'
p4884
(lp4885
g119
asS'605355'
p4886
(lp4887
S'C538397'
p4888
asS'134934'
p4889
(lp4890
g1321
aS'C566844'
p4891
ag4872
asS'259420'
p4892
(lp4893
S'C536044'
p4894
asS'105563'
p4895
(lp4896
S'C538254'
p4897
asS'609304'
p4898
(lp4899
S'C562695'
p4900
asS'609306'
p4901
(lp4902
S'C537203'
p4903
asS'609307'
p4904
(lp4905
S'C537204'
p4906
asS'610733'
p4907
(lp4908
S'C548082'
p4909
asS'149000'
p4910
(lp4911
S'D007715'
p4912
asS'612310'
p4913
(lp4914
S'C567351'
p4915
asS'607087'
p4916
(lp4917
S'C564627'
p4918
asS'604302'
p4919
(lp4920
S'C565798'
p4921
asS'191100'
p4922
(lp4923
S'D014402'
p4924
aS'C565346'
p4925
asS'611603'
p4926
(lp4927
S'C566908'
p4928
asS'305390'
p4929
(lp4930
S'C564428'
p4931
asS'102500'
p4932
(lp4933
S'D031845'
p4934
aS'C537586'
p4935
asS'107970'
p4936
(lp4937
S'C566254'
p4938
aS'C536932'
p4939
asS'236200'
p4940
(lp4941
S'D006712'
p4942
asS'222730'
p4943
(lp4944
S'C536171'
p4945
asS'265140'
p4946
(lp4947
S'C562404'
p4948
asS'118210'
p4949
(lp4950
S'C566138'
p4951
asS'139090'
p4952
(lp4953
S'D055652'
p4954
asS'605018'
p4955
(lp4956
S'C536611'
p4957
asS'605019'
p4958
(lp4959
S'C565732'
p4960
asS'251290'
p4961
(lp4962
g3692
asS'104760'
p4963
(lp4964
S'C566298'
p4965
asS'609239'
p4966
(lp4967
g4221
asS'137940'
p4968
(lp4969
S'C536825'
p4970
asS'246900'
p4971
(lp4972
g3899
asS'167320'
p4973
(lp4974
S'C563476'
p4975
asS'113500'
p4976
(lp4977
S'C562963'
p4978
asS'204100'
p4979
(lp4980
S'C536601'
p4981
asS'139300'
p4982
(lp4983
S'C000591739'
p4984
asS'609015'
p4985
(lp4986
S'C566945'
p4987
asS'609016'
p4988
(lp4989
g4987
asS'609541'
p4990
(lp4991
S'C563702'
p4992
asS'608013'
p4993
(lp4994
g732
asS'609549'
p4995
(lp4996
S'C563700'
p4997
asS'608540'
p4998
(lp4999
S'C535749'
p5000
asS'612095'
p5001
(lp5002
S'C567422'
p5003
asS'614034'
p5004
(lp5005
S'C564200'
p5006
asS'603034'
p5007
(lp5008
S'C566415'
p5009
asS'248370'
p5010
(lp5011
S'C535705'
p5012
asS'309605'
p5013
(lp5014
S'C537472'
p5015
asS'613765'
p5016
(lp5017
S'C566044'
p5018
asS'612096'
p5019
(lp5020
S'C567421'
p5021
asS'124500'
p5022
(lp5023
S'C536457'
p5024
asS'612968'
p5025
(lp5026
S'C567835'
p5027
asS'219100'
p5028
(lp5029
S'C562628'
p5030
asS'264300'
p5031
(lp5032
S'C537805'
p5033
asS'269200'
p5034
(lp5035
S'D016884'
p5036
asS'610024'
p5037
(lp5038
S'C566483'
p5039
asS'610021'
p5040
(lp5041
S'C538376'
p5042
asS'118430'
p5043
(lp5044
S'C566132'
p5045
asS'184900'
p5046
(lp5047
S'C566112'
p5048
asS'608264'
p5049
(lp5050
S'C564266'
p5051
asS'604308'
p5052
(lp5053
S'C536030'
p5054
asS'605472'
p5055
(lp5056
S'C536492'
p5057
asS'612965'
p5058
(lp5059
S'D058490'
p5060
asS'601154'
p5061
(lp5062
S'C563384'
p5063
asS'211900'
p5064
(lp5065
S'C566870'
p5066
asS'604307'
p5067
(lp5068
S'C565133'
p5069
asS'176860'
p5070
(lp5071
S'C567163'
p5072
asS'254110'
p5073
(lp5074
S'C535897'
p5075
asS'265430'
p5076
(lp5077
S'C562992'
p5078
asS'601777'
p5079
(lp5080
S'C538363'
p5081
asS'601771'
p5082
(lp5083
S'C565547'
p5084
asS'176943'
p5085
(lp5086
S'C537559'
p5087
aS'C566511'
p5088
ag2985
aS'D003394'
p5089
ag2821
asS'602743'
p5090
(lp5091
g2642
asS'612964'
p5092
(lp5093
S'C567838'
p5094
asS'300842'
p5095
(lp5096
S'C564038'
p5097
asS'607654'
p5098
(lp5099
S'C536163'
p5100
asS'607655'
p5101
(lp5102
S'C564359'
p5103
asS'604117'
p5104
(lp5105
S'C565826'
p5106
asS'609161'
p5107
(lp5108
S'C563783'
p5109
asS'609162'
p5110
(lp5111
S'C535766'
p5112
asS'300673'
p5113
(lp5114
S'C566878'
p5115
asS'174763'
p5116
(lp5117
g2212
ag2695
aS'C537583'
p5118
aS'C564395'
p5119
asS'610127'
p5120
(lp5121
S'C566438'
p5122
asS'610125'
p5123
(lp5124
S'C566441'
p5125
asS'300844'
p5126
(lp5127
S'C563141'
p5128
asS'253200'
p5129
(lp5130
S'D009087'
p5131
asS'203200'
p5132
(lp5133
S'C537730'
p5134
aS'C562662'
p5135
asS'223900'
p5136
(lp5137
S'D004402'
p5138
asS'143890'
p5139
(lp5140
S'D006938'
p5141
asS'614105'
p5142
(lp5143
S'C566402'
p5144
asS'600175'
p5145
(lp5146
S'C563981'
p5147
asS'600176'
p5148
(lp5149
S'C538091'
p5150
asS'313200'
p5151
(lp5152
S'D055534'
p5153
aS'C537017'
p5154
asS'248200'
p5155
(lp5156
g500
aS'C565741'
p5157
asS'163200'
p5158
(lp5159
g2506
asS'269840'
p5160
(lp5161
S'C536722'
p5162
asS'146550'
p5163
(lp5164
S'C567718'
p5165
asS'604271'
p5166
(lp5167
S'C565805'
p5168
asS'424500'
p5169
(lp5170
S'D018238'
p5171
asS'601371'
p5172
(lp5173
S'C563333'
p5174
asS'608782'
p5175
(lp5176
S'C536258'
p5177
asS'278760'
p5178
(lp5179
S'C562592'
p5180
asS'300703'
p5181
(lp5182
S'C567478'
p5183
asS'608787'
p5184
(lp5185
S'C563858'
p5186
asS'604278'
p5187
(lp5188
S'C567038'
p5189
asS'142410'
p5190
(lp5191
S'C567286'
p5192
aS'D002292'
p5193
asS'254800'
p5194
(lp5195
S'D020194'
p5196
asS'608161'
p5197
(lp5198
S'D057826'
p5199
asS'600195'
p5200
(lp5201
S'C563977'
p5202
asS'600193'
p5203
(lp5204
S'C536465'
p5205
asS'152700'
p5206
(lp5207
S'D008180'
p5208
asS'300062'
p5209
(lp5210
S'C537454'
p5211
asS'115430'
p5212
(lp5213
S'D002349'
p5214
asS'164790'
p5215
(lp5216
S'C548084'
p5217
asS'248700'
p5218
(lp5219
S'C535910'
p5220
asS'148840'
p5221
(lp5222
S'D017593'
p5223
asS'252350'
p5224
(lp5225
S'C536991'
p5226
asS'103100'
p5227
(lp5228
S'D015845'
p5229
asS'187600'
p5230
(lp5231
g4891
aS'D000130'
p5232
asS'187601'
p5233
(lp5234
S'C536508'
p5235
asS'113970'
p5236
(lp5237
S'D002051'
p5238
asS'309400'
p5239
(lp5240
S'D007706'
p5241
asS'604454'
p5242
(lp5243
S'D049310'
p5244
asS'608768'
p5245
(lp5246
S'C537307'
p5247
asS'311450'
p5248
(lp5249
S'C538106'
p5250
asS'605909'
p5251
(lp5252
S'C565276'
p5253
asS'150600'
p5254
(lp5255
g2023
asS'612165'
p5256
(lp5257
S'C567403'
p5258
asS'212112'
p5259
(lp5260
S'C535703'
p5261
aS'C535580'
p5262
asS'160150'
p5263
(lp5264
S'D020914'
p5265
asS'301410'
p5266
(lp5267
S'C536410'
p5268
asS'610247'
p5269
(lp5270
S'D057765'
p5271
asS'610234'
p5272
(lp5273
S'C565216'
p5274
asS'611409'
p5275
(lp5276
g5135
asS'236900'
p5277
(lp5278
S'C565502'
p5279
asS'143095'
p5280
(lp5281
S'C535789'
p5282
asS'122200'
p5283
(lp5284
S'C537881'
p5285
asS'203650'
p5286
(lp5287
S'C565965'
p5288
asS'164310'
p5289
(lp5290
S'C563508'
p5291
asS'142700'
p5292
(lp5293
S'D006618'
p5294
aS'D006617'
p5295
asS'609647'
p5296
(lp5297
S'C566459'
p5298
asS'600512'
p5299
(lp5300
S'C537297'
p5301
asS'233300'
p5302
(lp5303
S'D023961'
p5304
asS'175700'
p5305
(lp5306
S'C537300'
p5307
asS'274400'
p5308
(lp5309
S'C564766'
p5310
asS'263300'
p5311
(lp5312
S'D011087'
p5313
asS'611718'
p5314
(lp5315
S'C567127'
p5316
asS'263650'
p5317
(lp5318
S'C564874'
p5319
asS'158810'
p5320
(lp5321
S'C535436'
p5322
asS'600223'
p5323
(lp5324
S'D020754'
p5325
asS'600224'
p5326
(lp5327
g785
asS'600225'
p5328
(lp5329
S'C537537'
p5330
asS'188000'
p5331
(lp5332
S'C536519'
p5333
asS'516030'
p5334
(lp5335
g531
asS'262300'
p5336
(lp5337
S'C536129'
p5338
asS'614102'
p5339
(lp5340
S'C564131'
p5341
asS'229700'
p5342
(lp5343
S'D015319'
p5344
asS'225280'
p5345
(lp5346
S'C536190'
p5347
asS'609821'
p5348
(lp5349
S'C565220'
p5350
asS'609820'
p5351
(lp5352
S'C565221'
p5353
asS'170390'
p5354
(lp5355
S'D050030'
p5356
asS'603372'
p5357
(lp5358
S'C566386'
p5359
asS'612740'
p5360
(lp5361
S'C562618'
p5362
asS'137760'
p5363
(lp5364
S'C562750'
p5365
ag2119
asS'300624'
p5366
(lp5367
S'D005600'
p5368
aS'C567593'
p5369
asS'242860'
p5370
(lp5371
S'C537362'
p5372
asS'611465'
p5373
(lp5374
S'C566936'
p5375
asS'611291'
p5376
(lp5377
S'C566970'
p5378
asS'245660'
p5379
(lp5380
S'C537032'
p5381
asS'228250'
p5382
(lp5383
S'C537917'
p5384
asS'173470'
p5385
(lp5386
S'D054098'
p5387
aS'C562868'
p5388
asS'612989'
p5389
(lp5390
S'C567833'
p5391
asS'600354'
p5392
(lp5393
g1813
ag267
aS'C563948'
p5394
asS'242880'
p5395
(lp5396
g1000
asS'613837'
p5397
(lp5398
S'C564140'
p5399
asS'606438'
p5400
(lp5401
S'C564708'
p5402
asS'607432'
p5403
(lp5404
S'D054221'
p5405
asS'231950'
p5406
(lp5407
S'C536836'
p5408
asS'610832'
p5409
(lp5410
S'C563657'
p5411
asS'188550'
p5412
(lp5413
S'C536915'
p5414
asS'613839'
p5415
(lp5416
S'C565095'
p5417
asS'156400'
p5418
(lp5419
S'C537564'
p5420
asS'606744'
p5421
(lp5422
S'C537534'
p5423
asS'606210'
p5424
(lp5425
g1174
asS'606217'
p5426
(lp5427
S'C565249'
p5428
asS'606215'
p5429
(lp5430
S'C562831'
p5431
aS'D004694'
p5432
asS'189600'
p5433
(lp5434
S'D014103'
p5435
asS'255995'
p5436
(lp5437
S'C538343'
p5438
asS'117700'
p5439
(lp5440
S'C536004'
p5441
aS'C565801'
p5442
asS'302950'
p5443
(lp5444
S'C535941'
p5445
asS'311070'
p5446
(lp5447
S'C537129'
p5448
asS'612401'
p5449
(lp5450
S'D020370'
p5451
asS'607341'
p5452
(lp5453
S'C537067'
p5454
asS'607346'
p5455
(lp5456
S'C537198'
p5457
asS'612406'
p5458
(lp5459
S'C567319'
p5460
asS'144150'
p5461
(lp5462
S'C538377'
p5463
asS'245590'
p5464
(lp5465
S'C537871'
p5466
asS'217095'
p5467
(lp5468
S'C535464'
p5469
aS'D004310'
p5470
aS'D014339'
p5471
aS'D004062'
p5472
asS'606693'
p5473
(lp5474
S'C537177'
p5475
asS'234100'
p5476
(lp5477
S'D006210'
p5478
asS'300719'
p5479
(lp5480
S'C567467'
p5481
asS'217090'
p5482
(lp5483
S'C566897'
p5484
asS'150800'
p5485
(lp5486
S'C535516'
p5487
asS'207500'
p5488
(lp5489
S'D001006'
p5490
asS'545000'
p5491
(lp5492
S'D017243'
p5493
asS'220100'
p5494
(lp5495
S'D003555'
p5496
aS'C565652'
p5497
asS'100100'
p5498
(lp5499
S'D011535'
p5500
asS'300712'
p5501
(lp5502
S'C567471'
p5503
asS'300711'
p5504
(lp5505
S'C567472'
p5506
asS'609952'
p5507
(lp5508
S'C538203'
p5509
asS'606325'
p5510
(lp5511
S'C565237'
p5512
asS'606324'
p5513
(lp5514
S'C565238'
p5515
asS'234300'
p5516
(lp5517
S'D055882'
p5518
asS'214400'
p5519
(lp5520
S'C535419'
p5521
asS'209885'
p5522
(lp5523
S'C537908'
p5524
asS'611182'
p5525
(lp5526
S'C566987'
p5527
asS'604272'
p5528
(lp5529
S'C536105'
p5530
asS'145600'
p5531
(lp5532
S'D008305'
p5533
aS'C536883'
p5534
asS'613164'
p5535
(lp5536
S'C567726'
p5537
asS'613163'
p5538
(lp5539
S'C535407'
p5540
asS'613161'
p5541
(lp5542
S'C563210'
p5543
asS'613160'
p5544
(lp5545
g3772
asS'610773'
p5546
(lp5547
S'C563665'
p5548
asS'612577'
p5549
(lp5550
S'C567244'
p5551
asS'612576'
p5552
(lp5553
S'C567245'
p5554
asS'249000'
p5555
(lp5556
S'C536133'
p5557
asS'608978'
p5558
(lp5559
S'C563821'
p5560
asS'612572'
p5561
(lp5562
S'C567249'
p5563
asS'300434'
p5564
(lp5565
S'C537495'
p5566
asS'300047'
p5567
(lp5568
S'C563142'
p5569
asS'300438'
p5570
(lp5571
S'C536080'
p5572
asS'601808'
p5573
(lp5574
S'C536580'
p5575
asS'608970'
p5576
(lp5577
S'C536309'
p5578
asS'608971'
p5579
(lp5580
S'C563822'
p5581
asS'217700'
p5582
(lp5583
S'C536439'
p5584
asS'155500'
p5585
(lp5586
S'C562546'
p5587
asS'603554'
p5588
(lp5589
g2265
aS'C538564'
p5590
asS'603553'
p5591
(lp5592
S'C537250'
p5593
asS'603552'
p5594
(lp5595
S'C537252'
p5596
asS'148069'
p5597
(lp5598
S'D053549'
p5599
asS'606241'
p5600
(lp5601
S'C562732'
p5602
asS'148067'
p5603
(lp5604
S'D053549'
p5605
asS'307700'
p5606
(lp5607
S'C562782'
p5608
asS'256500'
p5609
(lp5610
S'D056770'
p5611
asS'180104'
p5612
(lp5613
S'C566716'
p5614
asS'180105'
p5615
(lp5616
S'C566715'
p5617
asS'150330'
p5618
(lp5619
g1324
aS'C567708'
p5620
ag5012
aS'C535898'
p5621
aS'D020389'
p5622
aS'D002311'
p5623
aS'D052496'
p5624
aS'C536920'
p5625
asS'180100'
p5626
(lp5627
S'C538365'
p5628
asS'127500'
p5629
(lp5630
S'C567273'
p5631
asS'224700'
p5632
(lp5633
S'D004437'
p5634
asS'181450'
p5635
(lp5636
S'C536937'
p5637
asS'256870'
p5638
(lp5639
S'C564945'
p5640
asS'612514'
p5641
(lp5642
S'C567288'
p5643
asS'613291'
p5644
(lp5645
S'C567652'
p5646
asS'276820'
p5647
(lp5648
S'C535612'
p5649
asS'181270'
p5650
(lp5651
S'C536623'
p5652
asS'215700'
p5653
(lp5654
S'D020159'
p5655
asS'260920'
p5656
(lp5657
g312
asS'209500'
p5658
(lp5659
S'C565924'
p5660
asS'608160'
p5661
(lp5662
S'C564282'
p5663
asS'300388'
p5664
(lp5665
S'C536658'
p5666
asS'400004'
p5667
(lp5668
S'C564035'
p5669
asS'239200'
p5670
(lp5671
g1250
asS'311200'
p5672
(lp5673
S'D009958'
p5674
asS'231005'
p5675
(lp5676
S'C565553'
p5677
asS'602782'
p5678
(lp5679
S'C538322'
p5680
asS'231000'
p5681
(lp5682
g731
asS'300382'
p5683
(lp5684
g1069
aS'C563150'
p5685
asS'258315'
p5686
(lp5687
S'C537746'
p5688
asS'121900'
p5689
(lp5690
S'C537304'
p5691
asS'193510'
p5692
(lp5693
S'C536464'
p5694
asS'100070'
p5695
(lp5696
S'D017544'
p5697
aS'C565230'
p5698
asS'310300'
p5699
(lp5700
S'D020389'
p5701
asS'158320'
p5702
(lp5703
S'D055653'
p5704
asS'119800'
p5705
(lp5706
S'D003025'
p5707
asS'606164'
p5708
(lp5709
S'C565256'
p5710
asS'607017'
p5711
(lp5712
S'C564634'
p5713
asS'107800'
p5714
(lp5715
S'D001112'
p5716
asS'611876'
p5717
(lp5718
S'C567508'
p5719
asS'611875'
p5720
(lp5721
S'C567509'
p5722
asS'607004'
p5723
(lp5724
S'C564635'
p5725
asS'300613'
p5726
(lp5727
S'C564473'
p5728
asS'611879'
p5729
(lp5730
S'C567506'
p5731
asS'611878'
p5732
(lp5733
S'C567507'
p5734
asS'277600'
p5735
(lp5736
S'D056846'
p5737
asS'253800'
p5738
(lp5739
S'D058494'
p5740
asS'215140'
p5741
(lp5742
S'C535858'
p5743
asS'277170'
p5744
(lp5745
S'C536531'
p5746
asS'602849'
p5747
(lp5748
S'C537369'
p5749
asS'611722'
p5750
(lp5751
S'C567097'
p5752
asS'611721'
p5753
(lp5754
S'C567125'
p5755
asS'194050'
p5756
(lp5757
S'D018980'
p5758
asS'611726'
p5759
(lp5760
S'C567095'
p5761
asS'611724'
p5762
(lp5763
g1156
asS'261500'
p5764
(lp5765
S'C564893'
p5766
asS'300322'
p5767
(lp5768
S'D007926'
p5769
asS'610685'
p5770
(lp5771
S'C565199'
p5772
asS'247610'
p5773
(lp5774
S'C562489'
p5775
asS'244400'
p5776
(lp5777
S'D007619'
p5778
asS'266200'
p5779
(lp5780
S'C564858'
p5781
asS'600996'
p5782
(lp5783
S'C563409'
p5784
asS'116700'
p5785
(lp5786
g399
asS'600994'
p5787
(lp5788
S'C563410'
p5789
asS'600995'
p5790
(lp5791
S'C536404'
p5792
aS'C535761'
p5793
asS'600993'
p5794
(lp5795
S'C563412'
p5796
aS'C537702'
p5797
asS'248190'
p5798
(lp5799
S'C565423'
p5800
asS'613255'
p5801
(lp5802
S'C567681'
p5803
asS'602115'
p5804
(lp5805
S'C538132'
p5806
asS'162300'
p5807
(lp5808
S'D018814'
p5809
asS'300321'
p5810
(lp5811
S'C537923'
p5812
asS'612199'
p5813
(lp5814
S'C567401'
p5815
asS'602111'
p5816
(lp5817
S'C566574'
p5818
asS'613345'
p5819
(lp5820
S'C567635'
p5821
asS'605646'
p5822
(lp5823
g3080
ag3370
asS'180920'
p5824
(lp5825
S'C562407'
p5826
asS'613341'
p5827
(lp5828
S'C567636'
p5829
asS'605642'
p5830
(lp5831
S'C565310'
p5832
asS'608996'
p5833
(lp5834
S'C563816'
p5835
asS'256520'
p5836
(lp5837
S'C536405'
p5838
asS'608656'
p5839
(lp5840
S'C563883'
p5841
asS'309545'
p5842
(lp5843
S'C564106'
p5844
asS'300324'
p5845
(lp5846
S'C564533'
p5847
asS'309549'
p5848
(lp5849
S'C563137'
p5850
asS'312863'
p5851
(lp5852
S'D053632'
p5853
asS'612354'
p5854
(lp5855
S'C567338'
p5856
asS'612353'
p5857
(lp5858
S'C567339'
p5859
asS'250220'
p5860
(lp5861
S'C535798'
p5862
asS'140700'
p5863
(lp5864
S'C563030'
p5865
asS'312865'
p5866
(lp5867
S'C537119'
p5868
aS'C537267'
p5869
ag2034
asS'609757'
p5870
(lp5871
S'C565723'
p5872
asS'611615'
p5873
(lp5874
g719
asS'208200'
p5875
(lp5876
S'C538124'
p5877
asS'190350'
p5878
(lp5879
S'C536820'
p5880
asS'190351'
p5881
(lp5882
S'C566033'
p5883
asS'300557'
p5884
(lp5885
S'C564486'
p5886
asS'219250'
p5887
(lp5888
S'C536226'
p5889
asS'179800'
p5890
(lp5891
S'D000141'
p5892
asS'300337'
p5893
(lp5894
S'D010859'
p5895
asS'604841'
p5896
(lp5897
S'C537493'
p5898
asS'102510'
p5899
(lp5900
S'C566319'
p5901
asS'236270'
p5902
(lp5903
S'C565510'
p5904
asS'400045'
p5905
(lp5906
S'D050090'
p5907
asS'182212'
p5908
(lp5909
S'C537328'
p5910
asS'603233'
p5911
(lp5912
S'D011547'
p5913
asS'130000'
p5914
(lp5915
S'C536194'
p5916
asS'300163'
p5917
(lp5918
S'C567481'
p5919
asS'118220'
p5920
(lp5921
g4055
asS'175800'
p5922
(lp5923
S'D017499'
p5924
asS'232200'
p5925
(lp5926
S'D005953'
p5927
asS'601011'
p5928
(lp5929
S'C535506'
p5930
ag785
aS'C536890'
p5931
aS'C563405'
p5932
asS'125600'
p5933
(lp5934
S'C562379'
p5935
asS'602066'
p5936
(lp5937
g2645
asS'170600'
p5938
(lp5939
S'D010245'
p5940
asS'609220'
p5941
(lp5942
S'C537407'
p5943
asS'609227'
p5944
(lp5945
S'C537303'
p5946
asS'251260'
p5947
(lp5948
S'D049932'
p5949
asS'225000'
p5950
(lp5951
S'C563117'
p5952
asS'274270'
p5953
(lp5954
S'D054067'
p5955
asS'270200'
p5956
(lp5957
S'D016111'
p5958
asS'158105'
p5959
(lp5960
S'C563569'
p5961
asS'609558'
p5962
(lp5963
S'C563699'
p5964
asS'608572'
p5965
(lp5966
S'C537411'
p5967
asS'123500'
p5968
(lp5969
g5089
asS'248360'
p5970
(lp5971
S'C535702'
p5972
asS'609790'
p5973
(lp5974
S'C565228'
p5975
asS'609796'
p5976
(lp5977
S'C536316'
p5978
asS'268650'
p5979
(lp5980
S'C536189'
p5981
asS'613750'
p5982
(lp5983
S'C563526'
p5984
asS'121011'
p5985
(lp5986
S'C567134'
p5987
aS'C566528'
p5988
ag2383
asS'179010'
p5989
(lp5990
S'C566730'
p5991
asS'107640'
p5992
(lp5993
g3587
asS'608652'
p5994
(lp5995
S'C563885'
p5996
asS'112240'
p5997
(lp5998
S'C535963'
p5999
asS'170900'
p6000
(lp6001
S'D000752'
p6002
asS'204000'
p6003
(lp6004
S'C536600'
p6005
asS'615999'
p6006
(lp6007
S'D050010'
p6008
asS'609311'
p6009
(lp6010
S'C563740'
p6011
asS'609310'
p6012
(lp6013
g110
asS'601162'
p6014
(lp6015
S'C536868'
p6016
asS'615990'
p6017
(lp6018
S'C567140'
p6019
asS'102200'
p6020
(lp6021
S'C566321'
p6022
aS'D049912'
p6023
asS'166970'
p6024
(lp6025
S'C562391'
p6026
asS'608372'
p6027
(lp6028
S'C564250'
p6029
asS'230200'
p6030
(lp6031
g1860
asS'112800'
p6032
(lp6033
S'C537097'
p6034
asS'608371'
p6035
(lp6036
S'C564251'
p6037
asS'608374'
p6038
(lp6039
S'D006432'
p6040
asS'604519'
p6041
(lp6042
S'C565764'
p6043
asS'612976'
p6044
(lp6045
S'C567834'
p6046
asS'133100'
p6047
(lp6048
S'C536842'
p6049
asS'122470'
p6050
(lp6051
S'D003635'
p6052
asS'613086'
p6053
(lp6054
S'C567765'
p6055
asS'219000'
p6056
(lp6057
S'D058497'
p6058
asS'603693'
p6059
(lp6060
g5470
asS'301700'
p6061
(lp6062
S'D000857'
p6063
asS'312000'
p6064
(lp6065
S'C538613'
p6066
asS'301790'
p6067
(lp6068
S'C537315'
p6069
asS'601412'
p6070
(lp6071
S'C563321'
p6072
asS'107480'
p6073
(lp6074
S'C536974'
p6075
aS'C566272'
p6076
asS'252500'
p6077
(lp6078
g799
aS'D009081'
p6079
asS'137800'
p6080
(lp6081
S'D001254'
p6082
aS'D004806'
p6083
aS'D005909'
p6084
aS'D009837'
p6085
aS'D018315'
p6086
asS'302000'
p6087
(lp6088
S'C563065'
p6089
asS'600163'
p6090
(lp6091
g4186
ag3555
aS'D012804'
p6092
ag4187
asS'609285'
p6093
(lp6094
S'C538351'
p6095
asS'600160'
p6096
(lp6097
S'C563985'
p6098
asS'601349'
p6099
(lp6100
S'C537686'
p6101
asS'614111'
p6102
(lp6103
S'C566729'
p6104
asS'609284'
p6105
(lp6106
S'C538348'
p6107
asS'169610'
p6108
(lp6109
S'C536645'
p6110
asS'211800'
p6111
(lp6112
S'C565891'
p6113
asS'600802'
p6114
(lp6115
S'C563440'
p6116
asS'610422'
p6117
(lp6118
S'C563668'
p6119
asS'101900'
p6120
(lp6121
S'D007644'
p6122
asS'243500'
p6123
(lp6124
S'C538167'
p6125
asS'130060'
p6126
(lp6127
S'C562625'
p6128
aS'C565061'
p6129
asS'136120'
p6130
(lp6131
S'D007863'
p6132
asS'600185'
p6133
(lp6134
S'C563980'
p6135
ag3878
ag174
asS'179830'
p6136
(lp6137
S'D000141'
p6138
asS'172870'
p6139
(lp6140
S'C566801'
p6141
asS'611788'
p6142
(lp6143
S'C567085'
p6144
asS'608194'
p6145
(lp6146
S'C567698'
p6147
asS'242900'
p6148
(lp6149
S'C536629'
p6150
asS'142400'
p6151
(lp6152
S'D006551'
p6153
asS'229070'
p6154
(lp6155
S'C537070'
p6156
asS'191900'
p6157
(lp6158
g3584
asS'605911'
p6159
(lp6160
S'C567784'
p6161
asS'608755'
p6162
(lp6163
g3695
asS'274500'
p6164
(lp6165
S'C563206'
p6166
asS'600513'
p6167
(lp6168
S'C563930'
p6169
asS'608758'
p6170
(lp6171
S'C563865'
p6172
asS'222400'
p6173
(lp6174
S'C565629'
p6175
asS'608203'
p6176
(lp6177
S'C564275'
p6178
asS'601129'
p6179
(lp6180
S'C563387'
p6181
asS'256050'
p6182
(lp6183
S'C535395'
p6184
asS'144600'
p6185
(lp6186
g13
asS'610227'
p6187
(lp6188
S'C565217'
p6189
asS'610220'
p6190
(lp6191
S'C565698'
p6192
asS'600509'
p6193
(lp6194
S'D003924'
p6195
asS'202650'
p6196
(lp6197
S'C537996'
p6198
aS'C562503'
p6199
asS'264110'
p6200
(lp6201
S'C562708'
p6202
asS'226730'
p6203
(lp6204
S'C535377'
p6205
asS'607641'
p6206
(lp6207
S'C564362'
p6208
asS'600501'
p6209
(lp6210
S'C535334'
p6211
asS'608688'
p6212
(lp6213
S'C563876'
p6214
asS'601583'
p6215
(lp6216
S'C536707'
p6217
asS'606595'
p6218
(lp6219
g134
asS'606596'
p6220
(lp6221
S'C564612'
p6222
asS'606597'
p6223
(lp6224
g4741
asS'164100'
p6225
(lp6226
S'C537854'
p6227
asS'606593'
p6228
(lp6229
S'C564694'
p6230
asS'129900'
p6231
(lp6232
S'C565062'
p6233
asS'606598'
p6234
(lp6235
S'C535418'
p6236
ag691
ag692
asS'600231'
p6237
(lp6238
S'C536173'
p6239
asS'272440'
p6240
(lp6241
S'C538152'
p6242
asS'609814'
p6243
(lp6244
S'C562875'
p6245
asS'609815'
p6246
(lp6247
S'C565223'
p6248
asS'136680'
p6249
(lp6250
S'D052159'
p6251
asS'611067'
p6252
(lp6253
S'C567023'
p6254
asS'231550'
p6255
(lp6256
S'C536008'
p6257
asS'609813'
p6258
(lp6259
S'C535781'
p6260
asS'207750'
p6261
(lp6262
g366
asS'612997'
p6263
(lp6264
S'C567832'
p6265
asS'208920'
p6266
(lp6267
S'C538013'
p6268
asS'605428'
p6269
(lp6270
S'C565329'
p6271
asS'612259'
p6272
(lp6273
S'C567380'
p6274
asS'271640'
p6275
(lp6276
S'C562968'
p6277
asS'611263'
p6278
(lp6279
S'C566982'
p6280
asS'610829'
p6281
(lp6282
S'C563659'
p6283
asS'610828'
p6284
(lp6285
S'C563660'
p6286
asS'245800'
p6287
(lp6288
S'D007849'
p6289
asS'144700'
p6290
(lp6291
g5193
asS'216550'
p6292
(lp6293
S'C536438'
p6294
asS'613806'
p6295
(lp6296
S'D015209'
p6297
asS'263000'
p6298
(lp6299
S'C562470'
p6300
asS'300551'
p6301
(lp6302
S'C564489'
p6303
asS'606263'
p6304
(lp6305
S'C565240'
p6306
asS'114550'
p6307
(lp6308
S'D006528'
p6309
aS'D018197'
p6310
aS'D008113'
p6311
asS'136350'
p6312
(lp6313
g5087
asS'606777'
p6314
(lp6315
S'C536830'
p6316
asS'234000'
p6317
(lp6318
S'D005175'
p6319
asS'607358'
p6320
(lp6321
S'C538275'
p6322
asS'109200'
p6323
(lp6324
S'D000505'
p6325
asS'609913'
p6326
(lp6327
S'C563689'
p6328
asS'229800'
p6329
(lp6330
S'C538068'
p6331
asS'118425'
p6332
(lp6333
S'D009224'
p6334
asS'154800'
p6335
(lp6336
S'D008415'
p6337
aS'D014582'
p6338
asS'118420'
p6339
(lp6340
S'D001139'
p6341
asS'608908'
p6342
(lp6343
g5530
asS'609968'
p6344
(lp6345
S'C566494'
p6346
asS'300623'
p6347
(lp6348
g4853
asS'603744'
p6349
(lp6350
S'C563277'
p6351
asS'300622'
p6352
(lp6353
S'C562719'
p6354
asS'609823'
p6355
(lp6356
S'C565218'
p6357
asS'614696'
p6358
(lp6359
S'C563708'
p6360
asS'272200'
p6361
(lp6362
S'D052517'
p6363
asS'610913'
p6364
(lp6365
S'C567048'
p6366
asS'606353'
p6367
(lp6368
S'C536416'
p6369
asS'167000'
p6370
(lp6371
S'D010051'
p6372
aS'C538090'
p6373
asS'610915'
p6374
(lp6375
S'C536049'
p6376
asS'272100'
p6377
(lp6378
S'D002549'
p6379
asS'129010'
p6380
(lp6381
g3264
asS'245050'
p6382
(lp6383
S'C537527'
p6384
asS'300489'
p6385
(lp6386
S'C564506'
p6387
asS'153300'
p6388
(lp6389
S'D056684'
p6390
asS'202010'
p6391
(lp6392
S'C535978'
p6393
asS'613112'
p6394
(lp6395
S'C567747'
p6396
asS'613113'
p6397
(lp6398
g3850
ag2952
asS'189500'
p6399
(lp6400
S'C536736'
p6401
asS'613116'
p6402
(lp6403
S'C567737'
p6404
asS'609812'
p6405
(lp6406
S'C565225'
p6407
asS'261640'
p6408
(lp6409
S'C535325'
p6410
asS'612201'
p6411
(lp6412
S'C567400'
p6413
asS'613118'
p6414
(lp6415
S'D020152'
p6416
asS'613119'
p6417
(lp6418
S'C567735'
p6419
asS'150250'
p6420
(lp6421
S'C580241'
p6422
asS'127400'
p6423
(lp6424
S'C535729'
p6425
asS'180200'
p6426
(lp6427
S'D012175'
p6428
asS'300423'
p6429
(lp6430
S'C564516'
p6431
asS'300422'
p6432
(lp6433
g5812
asS'300427'
p6434
(lp6435
g894
asS'158000'
p6436
(lp6437
S'D056734'
p6438
asS'188050'
p6439
(lp6440
S'D054556'
p6441
aS'D020246'
p6442
asS'606176'
p6443
(lp6444
g325
ag328
aS'C565253'
p6445
asS'188055'
p6446
(lp6447
S'C566056'
p6448
aS'D020016'
p6449
asS'603523'
p6450
(lp6451
S'C535461'
p6452
asS'119600'
p6453
(lp6454
S'D002973'
p6455
ag4417
aS'C566119'
p6456
asS'611955'
p6457
(lp6458
S'C567449'
p6459
asS'608026'
p6460
(lp6461
S'C563161'
p6462
asS'266140'
p6463
(lp6464
S'C563004'
p6465
asS'262190'
p6466
(lp6467
S'D056731'
p6468
asS'608118'
p6469
(lp6470
S'C564286'
p6471
asS'601216'
p6472
(lp6473
S'C536538'
p6474
asS'130900'
p6475
(lp6476
S'C562880'
p6477
asS'137400'
p6478
(lp6479
S'D005929'
p6480
aS'C538499'
p6481
aS'D014063'
p6482
asS'266900'
p6483
(lp6484
S'C537580'
p6485
asS'208100'
p6486
(lp6487
S'C536614'
p6488
asS'117550'
p6489
(lp6490
S'D058495'
p6491
asS'608027'
p6492
(lp6493
S'C548072'
p6494
asS'608232'
p6495
(lp6496
S'D015464'
p6497
aS'D054438'
p6498
asS'300577'
p6499
(lp6500
S'C564482'
p6501
asS'133020'
p6502
(lp6503
S'D004916'
p6504
asS'172700'
p6505
(lp6506
S'D020774'
p6507
asS'606002'
p6508
(lp6509
S'C537308'
p6510
asS'606003'
p6511
(lp6512
S'C563207'
p6513
asS'615656'
p6514
(lp6515
S'C557830'
p6516
asS'300392'
p6517
(lp6518
S'C564052'
p6519
asS'601847'
p6520
(lp6521
S'C535934'
p6522
asS'214150'
p6523
(lp6524
S'C562434'
p6525
asS'300559'
p6526
(lp6527
S'C564485'
p6528
asS'300558'
p6529
(lp6530
S'C563146'
p6531
asS'612219'
p6532
(lp6533
S'D012512'
p6534
aS'D018241'
p6535
aS'C563168'
p6536
asS'300555'
p6537
(lp6538
S'C564487'
p6539
asS'300554'
p6540
(lp6541
S'D053098'
p6542
asS'249100'
p6543
(lp6544
S'D010505'
p6545
asS'277180'
p6546
(lp6547
S'C535984'
p6548
asS'250100'
p6549
(lp6550
S'D007966'
p6551
aS'C565403'
p6552
asS'613705'
p6553
(lp6554
S'C566605'
p6555
asS'161200'
p6556
(lp6557
S'D009261'
p6558
asS'616186'
p6559
(lp6560
g964
asS'214800'
p6561
(lp6562
S'D058747'
p6563
asS'611884'
p6564
(lp6565
S'C567504'
p6566
asS'277610'
p6567
(lp6568
S'C535776'
p6569
asS'611880'
p6570
(lp6571
S'C567505'
p6572
asS'611881'
p6573
(lp6574
S'C562718'
p6575
asS'215600'
p6576
(lp6577
S'C566123'
p6578
aS'C562577'
p6579
aS'C566858'
p6580
aS'C562580'
p6581
asS'167750'
p6582
(lp6583
S'C536376'
p6584
asS'106210'
p6585
(lp6586
S'D015783'
p6587
asS'602588'
p6588
(lp6589
S'C537104'
p6590
asS'223400'
p6591
(lp6592
S'C535720'
p6593
asS'212200'
p6594
(lp6595
S'C535328'
p6596
asS'603859'
p6597
(lp6598
g3292
asS'300087'
p6599
(lp6600
S'C564716'
p6601
asS'162080'
p6602
(lp6603
S'C563527'
p6604
asS'300085'
p6605
(lp6606
S'C564717'
p6607
asS'231300'
p6608
(lp6609
g5084
aS'D006871'
p6610
asS'191740'
p6611
(lp6612
g3546
aS'C562692'
p6613
ag1660
asS'261515'
p6614
(lp6615
S'C537286'
p6616
asS'271630'
p6617
(lp6618
S'C535787'
p6619
asS'300088'
p6620
(lp6621
S'C564715'
p6622
asS'602450'
p6623
(lp6624
S'C537589'
p6625
asS'119900'
p6626
(lp6627
S'D010004'
p6628
asS'613339'
p6629
(lp6630
S'D020195'
p6631
asS'125853'
p6632
(lp6633
g6195
asS'125852'
p6634
(lp6635
S'C565100'
p6636
asS'125851'
p6637
(lp6638
g327
aS'D016640'
p6639
asS'125850'
p6640
(lp6641
S'C565101'
p6642
asS'605670'
p6643
(lp6644
S'C565309'
p6645
asS'613330'
p6646
(lp6647
S'C567639'
p6648
asS'311300'
p6649
(lp6650
S'C536065'
p6651
aS'C567577'
p6652
asS'213980'
p6653
(lp6654
S'C565862'
p6655
asS'608984'
p6656
(lp6657
S'C563818'
p6658
asS'602690'
p6659
(lp6660
g659
aS'C562842'
p6661
aS'D010235'
p6662
asS'165500'
p6663
(lp6664
S'D029241'
p6665
asS'124200'
p6666
(lp6667
S'D007644'
p6668
aS'C565126'
p6669
aS'C565125'
p6670
asS'121800'
p6671
(lp6672
S'C535475'
p6673
asS'312870'
p6674
(lp6675
S'C537340'
p6676
asS'193670'
p6677
(lp6678
S'C536697'
p6679
asS'608988'
p6680
(lp6681
S'C563903'
p6682
asS'303700'
p6683
(lp6684
S'C536238'
p6685
asS'151400'
p6686
(lp6687
S'D015451'
p6688
asS'218700'
p6689
(lp6690
S'C566852'
p6691
aS'D018382'
p6692
aS'D050033'
p6693
asS'274300'
p6694
(lp6695
S'C567936'
p6696
asS'190340'
p6697
(lp6698
S'C536847'
p6699
asS'116600'
p6700
(lp6701
S'C535339'
p6702
aS'C567814'
p6703
asS'605583'
p6704
(lp6705
S'C565319'
p6706
asS'236792'
p6707
(lp6708
S'C535306'
p6709
asS'236795'
p6710
(lp6711
S'C535312'
p6712
asS'603964'
p6713
(lp6714
S'C565832'
p6715
asS'185500'
p6716
(lp6717
S'D021921'
p6718
asS'146520'
p6719
(lp6720
S'C564143'
p6721
asS'305600'
p6722
(lp6723
S'D005489'
p6724
asS'605589'
p6725
(lp6726
S'C537991'
p6727
asS'604856'
p6728
(lp6729
S'D006646'
p6730
asS'215045'
p6731
(lp6732
S'C537914'
p6733
asS'271900'
p6734
(lp6735
S'D017825'
p6736
asS'613244'
p6737
(lp6738
S'C567685'
p6739
asS'613243'
p6740
(lp6741
S'C567686'
p6742
asS'610599'
p6743
(lp6744
S'C566431'
p6745
asS'601003'
p6746
(lp6747
S'C536607'
p6748
asS'612357'
p6749
(lp6750
S'C567530'
p6751
asS'176410'
p6752
(lp6753
S'C536961'
p6754
asS'601005'
p6755
(lp6756
S'C536962'
p6757
asS'602540'
p6758
(lp6759
g5988
asS'250850'
p6760
(lp6761
S'C564683'
p6762
asS'300376'
p6763
(lp6764
g4844
asS'257800'
p6765
(lp6766
S'C537866'
p6767
asS'182980'
p6768
(lp6769
S'C566673'
p6770
asS'300373'
p6771
(lp6772
S'C536053'
p6773
asS'602078'
p6774
(lp6775
S'C566587'
p6776
asS'139320'
p6777
(lp6778
S'C562735'
p6779
ag3681
ag62
asS'235200'
p6780
(lp6781
g6040
asS'162400'
p6782
(lp6783
S'D009477'
p6784
asS'605749'
p6785
(lp6786
S'C565298'
p6787
asS'157640'
p6788
(lp6789
S'C563575'
p6790
asS'609566'
p6791
(lp6792
S'C563697'
p6793
asS'113700'
p6794
(lp6795
S'C562989'
p6796
asS'204300'
p6797
(lp6798
g3051
asS'309620'
p6799
(lp6800
S'C564101'
p6801
asS'157170'
p6802
(lp6803
S'C563579'
p6804
asS'250460'
p6805
(lp6806
g1426
asS'613148'
p6807
(lp6808
S'C567728'
p6809
asS'246700'
p6810
(lp6811
S'C535460'
p6812
asS'613740'
p6813
(lp6814
S'C566052'
p6815
asS'194080'
p6816
(lp6817
S'D030321'
p6818
asS'610048'
p6819
(lp6820
S'C566452'
p6821
asS'232300'
p6822
(lp6823
S'D006009'
p6824
asS'208250'
p6825
(lp6826
S'C537560'
p6827
asS'176700'
p6828
(lp6829
S'D008313'
p6830
asS'149730'
p6831
(lp6832
g5806
asS'605294'
p6833
(lp6834
S'C563270'
p6835
asS'610042'
p6836
(lp6837
S'C566482'
p6838
aS'C567657'
p6839
asS'605293'
p6840
(lp6841
S'C565343'
p6842
asS'210250'
p6843
(lp6844
S'C537345'
p6845
asS'606662'
p6846
(lp6847
S'C564684'
p6848
asS'615989'
p6849
(lp6850
S'C565921'
p6851
asS'604322'
p6852
(lp6853
S'D029461'
p6854
asS'235510'
p6855
(lp6856
S'C537255'
p6857
asS'615982'
p6858
(lp6859
S'C537912'
p6860
asS'615981'
p6861
(lp6862
S'C537910'
p6863
asS'615987'
p6864
(lp6865
S'C565919'
p6866
asS'615986'
p6867
(lp6868
S'C565918'
p6869
asS'615985'
p6870
(lp6871
S'C565917'
p6872
asS'251450'
p6873
(lp6874
S'C535943'
p6875
asS'608361'
p6876
(lp6877
S'C564252'
p6878
asS'314200'
p6879
(lp6880
S'C564049'
p6881
asS'123400'
p6882
(lp6883
S'D007562'
p6884
aS'C565143'
p6885
asS'605850'
p6886
(lp6887
S'C565278'
p6888
asS'601757'
p6889
(lp6890
g2852
asS'137164'
p6891
(lp6892
S'C566975'
p6893
asS'174700'
p6894
(lp6895
S'C536333'
p6896
asS'601631'
p6897
(lp6898
S'C535535'
p6899
aS'C535538'
p6900
asS'608641'
p6901
(lp6902
S'C563890'
p6903
asS'113811'
p6904
(lp6905
S'C562639'
p6906
asS'615969'
p6907
(lp6908
S'C566300'
p6909
asS'610102'
p6910
(lp6911
S'C566443'
p6912
asS'180849'
p6913
(lp6914
S'D012415'
p6915
asS'610798'
p6916
(lp6917
S'C563663'
p6918
asS'275630'
p6919
(lp6920
S'C536560'
p6921
asS'278740'
p6922
(lp6923
S'C564732'
p6924
asS'602501'
p6925
(lp6926
S'C536142'
p6927
asS'260000'
p6928
(lp6929
S'C536415'
p6930
asS'601634'
p6931
(lp6932
S'C536409'
p6933
asS'601358'
p6934
(lp6935
S'C536116'
p6936
asS'226400'
p6937
(lp6938
S'D004819'
p6939
asS'611407'
p6940
(lp6941
S'C566954'
p6942
asS'226150'
p6943
(lp6944
S'D004760'
p6945
asS'121850'
p6946
(lp6947
S'C563256'
p6948
asS'608567'
p6949
(lp6950
S'C563907'
p6951
asS'604210'
p6952
(lp6953
g688
asS'604213'
p6954
(lp6955
S'C535459'
p6956
asS'254770'
p6957
(lp6958
S'D020190'
p6959
asS'251300'
p6960
(lp6961
S'C537548'
p6962
asS'610582'
p6963
(lp6964
g326
ag327
asS'604219'
p6965
(lp6966
S'C565815'
p6967
asS'604218'
p6968
(lp6969
S'C536841'
p6970
asS'255310'
p6971
(lp6972
g1174
asS'148600'
p6973
(lp6974
S'C536161'
p6975
asS'608569'
p6976
(lp6977
S'C563906'
p6978
asS'600757'
p6979
(lp6980
S'C563448'
p6981
asS'601410'
p6982
(lp6983
S'C563322'
p6984
asS'612690'
p6985
(lp6986
S'C567202'
p6987
asS'608189'
p6988
(lp6989
g3979
asS'607748'
p6990
(lp6991
S'C564336'
p6992
asS'311400'
p6993
(lp6994
S'C538101'
p6995
asS'135290'
p6996
(lp6997
S'C535944'
p6998
asS'607745'
p6999
(lp7000
S'D020936'
p7001
asS'516000'
p7002
(lp7003
S'D010300'
p7004
ag3555
ag1681
ag3821
asS'264070'
p7005
(lp7006
S'C538382'
p7007
asS'312300'
p7008
(lp7009
S'D013734'
p7010
asS'134610'
p7011
(lp7012
S'C565021'
p7013
asS'269880'
p7014
(lp7015
S'C537327'
p7016
asS'608747'
p7017
(lp7018
S'C563867'
p7019
asS'601414'
p7020
(lp7021
S'C563320'
p7022
asS'608217'
p7023
(lp7024
S'C564274'
p7025
asS'604432'
p7026
(lp7027
S'C565772'
p7028
asS'180901'
p7029
(lp7030
S'D020512'
p7031
aS'C564969'
p7032
ag5533
aS'C567162'
p7033
asS'212138'
p7034
(lp7035
S'C562812'
p7036
asS'609583'
p7037
(lp7038
S'C536296'
p7039
asS'234810'
p7040
(lp7041
S'C535861'
p7042
asS'610212'
p7043
(lp7044
S'C565701'
p7045
asS'176807'
p7046
(lp7047
S'D011471'
p7048
asS'156550'
p7049
(lp7050
S'C537207'
p7051
asS'219700'
p7052
(lp7053
S'D003550'
p7054
asS'256040'
p7055
(lp7056
S'C538334'
p7057
asS'415000'
p7058
(lp7059
S'C564030'
p7060
asS'250215'
p7061
(lp7062
S'C537350'
p7063
asS'123790'
p7064
(lp7065
S'C565129'
p7066
asS'607636'
p7067
(lp7068
S'C536527'
p7069
asS'607634'
p7070
(lp7071
S'C536056'
p7072
asS'608696'
p7073
(lp7074
S'C563873'
p7075
asS'115700'
p7076
(lp7077
S'C566162'
p7078
asS'260450'
p7079
(lp7080
S'C564907'
p7081
asS'601596'
p7082
(lp7083
S'C535423'
p7084
asS'178600'
p7085
(lp7086
S'D065627'
p7087
asS'268130'
p7088
(lp7089
g4168
asS'609640'
p7090
(lp7091
S'C535639'
p7092
asS'601552'
p7093
(lp7094
S'C563293'
p7095
asS'147750'
p7096
(lp7097
S'C535544'
p7098
asS'606585'
p7099
(lp7100
S'C562879'
p7101
asS'233450'
p7102
(lp7103
S'D019867'
p7104
asS'607292'
p7105
(lp7106
g4750
asS'137580'
p7107
(lp7108
S'D005879'
p7109
asS'607565'
p7110
(lp7111
S'C564378'
p7112
asS'108500'
p7113
(lp7114
g5930
asS'614823'
p7115
(lp7116
S'D001024'
p7117
asS'270700'
p7118
(lp7119
S'C536642'
p7120
asS'611073'
p7121
(lp7122
S'C567022'
p7123
asS'609800'
p7124
(lp7125
S'C565227'
p7126
asS'613675'
p7127
(lp7128
S'C563524'
p7129
asS'275900'
p7130
(lp7131
S'C536858'
p7132
asS'610852'
p7133
(lp7134
S'C567057'
p7135
asS'300650'
p7136
(lp7137
S'C537043'
p7138
asS'275210'
p7139
(lp7140
g5625
asS'612335'
p7141
(lp7142
S'C567349'
p7143
asS'611277'
p7144
(lp7145
S'C565811'
p7146
ag6893
asS'262850'
p7147
(lp7148
S'C537777'
p7149
asS'614350'
p7150
(lp7151
S'C563456'
p7152
asS'300717'
p7153
(lp7154
S'C567469'
p7155
asS'612337'
p7156
(lp7157
S'C567346'
p7158
asS'300716'
p7159
(lp7160
S'C567470'
p7161
asS'610265'
p7162
(lp7163
S'C565207'
p7164
asS'613812'
p7165
(lp7166
S'C566340'
p7167
asS'238970'
p7168
(lp7169
S'C538380'
p7170
asS'607364'
p7171
(lp7172
S'C537653'
p7173
aS'C564578'
p7174
asS'607365'
p7175
(lp7176
g4474
asS'607361'
p7177
(lp7178
S'C536132'
p7179
asS'606768'
p7180
(lp7181
S'C564664'
p7182
asS'606766'
p7183
(lp7184
S'C564665'
p7185
asS'239510'
p7186
(lp7187
S'C538385'
p7188
asS'606764'
p7189
(lp7190
g3054
asS'590105'
p7191
(lp7192
g416
asS'606762'
p7193
(lp7194
S'C538375'
p7195
asS'103780'
p7196
(lp7197
S'D000437'
p7198
asS'609975'
p7199
(lp7200
S'C566493'
p7201
asS'132400'
p7202
(lp7203
S'C535501'
p7204
asS'160565'
p7205
(lp7206
S'D020914'
p7207
asS'307030'
p7208
(lp7209
S'C538138'
p7210
asS'256450'
p7211
(lp7212
S'D044903'
p7213
ag3764
asS'131750'
p7214
(lp7215
S'C535956'
p7216
aS'D016108'
p7217
asS'300779'
p7218
(lp7219
S'C567587'
p7220
asS'300778'
p7221
(lp7222
S'C567588'
p7223
asS'180050'
p7224
(lp7225
S'D012163'
p7226
asS'612715'
p7227
(lp7228
S'C567194'
p7229
asS'170280'
p7230
(lp7231
g4073
asS'300770'
p7232
(lp7233
S'C567461'
p7234
asS'108340'
p7235
(lp7236
S'C566250'
p7237
asS'181500'
p7238
(lp7239
S'D012559'
p7240
aS'D011618'
p7241
asS'160760'
p7242
(lp7243
g5701
aS'C564253'
p7244
aS'C566005'
p7245
asS'300448'
p7246
(lp7247
S'C563023'
p7248
asS'258860'
p7249
(lp7250
S'C537133'
p7251
asS'606346'
p7252
(lp7253
S'C538197'
p7254
asS'606349'
p7255
(lp7256
S'D005715'
p7257
asS'606348'
p7258
(lp7259
S'C565234'
p7260
asS'605956'
p7261
(lp7262
g3890
asS'302801'
p7263
(lp7264
S'C535302'
p7265
asS'302800'
p7266
(lp7267
S'C535919'
p7268
asS'605808'
p7269
(lp7270
S'C537630'
p7271
asS'613101'
p7272
(lp7273
S'C567752'
p7274
asS'613100'
p7275
(lp7276
S'C567753'
p7277
asS'261630'
p7278
(lp7279
g3738
asS'613102'
p7280
(lp7281
S'C567751'
p7282
asS'613105'
p7283
(lp7284
S'C567750'
p7285
asS'613107'
p7286
(lp7287
S'C567748'
p7288
asS'610149'
p7289
(lp7290
S'C565718'
p7291
asS'259680'
p7292
(lp7293
S'C535456'
p7294
asS'613108'
p7295
(lp7296
S'C537979'
p7297
asS'304700'
p7298
(lp7299
S'C535808'
p7300
asS'300419'
p7301
(lp7302
g5685
asS'605845'
p7303
(lp7304
S'C565279'
p7305
asS'612518'
p7306
(lp7307
S'C567287'
p7308
asS'262500'
p7309
(lp7310
S'D046150'
p7311
asS'180800'
p7312
(lp7313
S'D002607'
p7314
asS'602079'
p7315
(lp7316
S'C536561'
p7317
asS'272300'
p7318
(lp7319
S'C538141'
p7320
asS'253000'
p7321
(lp7322
S'D009085'
p7323
asS'104200'
p7324
(lp7325
S'D009394'
p7326
asS'109100'
p7327
(lp7328
S'D001327'
p7329
asS'611095'
p7330
(lp7331
S'C567014'
p7332
asS'611094'
p7333
(lp7334
S'C567015'
p7335
asS'214700'
p7336
(lp7337
S'C536210'
p7338
asS'611096'
p7339
(lp7340
S'C567013'
p7341
asS'611091'
p7342
(lp7343
S'C567018'
p7344
asS'611090'
p7345
(lp7346
S'C567019'
p7347
asS'207410'
p7348
(lp7349
g2985
asS'611092'
p7350
(lp7351
S'C567017'
p7352
asS'256850'
p7353
(lp7354
S'D056768'
p7355
asS'150310'
p7356
(lp7357
g655
aS'D016109'
p7358
asS'155900'
p7359
(lp7360
S'D008556'
p7361
asS'605594'
p7362
(lp7363
S'C565316'
p7364
asS'183900'
p7365
(lp7366
S'C535788'
p7367
asS'309583'
p7368
(lp7369
S'C536678'
p7370
asS'180300'
p7371
(lp7372
S'D001172'
p7373
asS'156600'
p7374
(lp7375
S'C537550'
p7376
asS'277580'
p7377
(lp7378
S'C536467'
p7379
asS'605750'
p7380
(lp7381
S'C565297'
p7382
asS'249620'
p7383
(lp7384
S'C536232'
p7385
asS'192000'
p7386
(lp7387
S'C562565'
p7388
asS'158300'
p7389
(lp7390
S'C535857'
p7391
asS'613038'
p7392
(lp7393
S'C567803'
p7394
asS'145260'
p7395
(lp7396
S'D011546'
p7397
aS'C564160'
p7398
asS'606012'
p7399
(lp7400
S'C565267'
p7401
asS'309541'
p7402
(lp7403
S'C563136'
p7404
asS'130710'
p7405
(lp7406
S'C535735'
p7407
asS'261740'
p7408
(lp7409
S'C564888'
p7410
asS'151800'
p7411
(lp7412
S'D008069'
p7413
asS'615555'
p7414
(lp7415
S'D006966'
p7416
asS'185470'
p7417
(lp7418
g3054
ag659
asS'253310'
p7419
(lp7420
S'C537194'
p7421
asS'257910'
p7422
(lp7423
S'C564935'
p7424
asS'615558'
p7425
(lp7426
S'C566267'
p7427
asS'257320'
p7428
(lp7429
S'C537848'
p7430
asS'154780'
p7431
(lp7432
S'C536025'
p7433
asS'603629'
p7434
(lp7435
S'C566353'
p7436
asS'611895'
p7437
(lp7438
S'C567499'
p7439
asS'600790'
p7440
(lp7441
S'C535356'
p7442
asS'308500'
p7443
(lp7444
g6900
asS'603194'
p7445
(lp7446
S'C536131'
p7447
asS'611891'
p7448
(lp7449
S'C567501'
p7450
asS'611890'
p7451
(lp7452
S'C567502'
p7453
asS'100300'
p7454
(lp7455
S'C538225'
p7456
asS'603622'
p7457
(lp7458
S'C535507'
p7459
asS'130020'
p7460
(lp7461
g1386
asS'603846'
p7462
(lp7463
g1681
asS'610698'
p7464
(lp7465
S'C565196'
p7466
asS'600883'
p7467
(lp7468
S'C563433'
p7469
asS'120252'
p7470
(lp7471
g3298
asS'153400'
p7472
(lp7473
S'C537710'
p7474
aS'C567188'
p7475
asS'601318'
p7476
(lp7477
S'C563352'
p7478
asS'270685'
p7479
(lp7480
S'C536644'
p7481
asS'277400'
p7482
(lp7483
S'C537359'
p7484
asS'601317'
p7485
(lp7486
S'C563353'
p7487
asS'604395'
p7488
(lp7489
g84
ag2649
asS'184757'
p7490
(lp7491
g5094
asS'158900'
p7492
(lp7493
S'D020391'
p7494
aS'C536391'
p7495
asS'208000'
p7496
(lp7497
S'C537440'
p7498
asS'613251'
p7499
(lp7500
S'C567684'
p7501
asS'610455'
p7502
(lp7503
S'C566473'
p7504
asS'277970'
p7505
(lp7506
S'D014923'
p7507
asS'613329'
p7508
(lp7509
S'C567640'
p7510
asS'613328'
p7511
(lp7512
S'C567641'
p7513
asS'604559'
p7514
(lp7515
S'C567037'
p7516
asS'257920'
p7517
(lp7518
S'C537738'
p7519
asS'613320'
p7520
(lp7521
S'C567644'
p7522
asS'270750'
p7523
(lp7524
S'C536859'
p7525
asS'254210'
p7526
(lp7527
S'C535759'
p7528
asS'153880'
p7529
(lp7530
S'D008269'
p7531
asS'613327'
p7532
(lp7533
S'C567642'
p7534
asS'601709'
p7535
(lp7536
S'C536260'
p7537
asS'253260'
p7538
(lp7539
S'D028921'
p7540
asS'177170'
p7541
(lp7542
S'C535819'
p7543
asS'602668'
p7544
(lp7545
S'D009223'
p7546
asS'603530'
p7547
(lp7548
S'C566367'
p7549
asS'105150'
p7550
(lp7551
S'D028243'
p7552
asS'300436'
p7553
(lp7554
S'C564513'
p7555
asS'201250'
p7556
(lp7557
S'C535658'
p7558
asS'135500'
p7559
(lp7560
S'C536725'
p7561
asS'254400'
p7562
(lp7563
S'D009182'
p7564
asS'159001'
p7565
(lp7566
g5621
asS'159000'
p7567
(lp7568
S'C535906'
p7569
asS'302030'
p7570
(lp7571
S'C537963'
p7572
asS'602485'
p7573
(lp7574
S'C538374'
p7575
asS'602482'
p7576
(lp7577
S'C535679'
p7578
asS'602483'
p7579
(lp7580
S'C538270'
p7581
asS'602481'
p7582
(lp7583
S'C537246'
p7584
aS'C566540'
p7585
asS'190400'
p7586
(lp7587
S'D014277'
p7588
asS'236250'
p7589
(lp7590
S'C565512'
p7591
asS'134900'
p7592
(lp7593
S'C565017'
p7594
asS'201810'
p7595
(lp7596
S'C579862'
p7597
asS'222700'
p7598
(lp7599
S'C562687'
p7600
asS'309580'
p7601
(lp7602
S'C537457'
p7603
asS'605597'
p7604
(lp7605
S'C562419'
p7606
asS'605598'
p7607
(lp7608
S'C565315'
p7609
asS'188025'
p7610
(lp7611
S'C538617'
p7612
asS'301590'
p7613
(lp7614
S'C564457'
p7615
asS'182230'
p7616
(lp7617
S'D025962'
p7618
aS'C567632'
p7619
asS'613254'
p7620
(lp7621
S'C566021'
p7622
aS'C567682'
p7623
asS'209300'
p7624
(lp7625
S'C538259'
p7626
asS'605067'
p7627
(lp7628
S'D018785'
p7629
asS'613252'
p7630
(lp7631
S'C567683'
p7632
asS'186200'
p7633
(lp7634
S'C566092'
p7635
asS'300695'
p7636
(lp7637
g5919
asS'271930'
p7638
(lp7639
S'C537500'
p7640
asS'231200'
p7641
(lp7642
S'D001606'
p7643
aS'C565550'
p7644
asS'612020'
p7645
(lp7646
S'C567433'
p7647
asS'166750'
p7648
(lp7649
S'C563482'
p7650
asS'609579'
p7651
(lp7652
g5088
asS'609578'
p7653
(lp7654
S'C566512'
p7655
asS'152200'
p7656
(lp7657
S'C563618'
p7658
asS'609573'
p7659
(lp7660
S'C563695'
p7661
asS'300653'
p7662
(lp7663
S'C567067'
p7664
asS'607417'
p7665
(lp7666
S'C564404'
p7667
asS'240300'
p7668
(lp7669
S'D016884'
p7670
ag6322
asS'305100'
p7671
(lp7672
S'D053358'
p7673
asS'303600'
p7674
(lp7675
S'D038921'
p7676
asS'203780'
p7677
(lp7678
S'D009394'
p7679
asS'248340'
p7680
(lp7681
S'C535704'
p7682
asS'157140'
p7683
(lp7684
S'D013494'
p7685
asS'309630'
p7686
(lp7687
S'C564100'
p7688
asS'249900'
p7689
(lp7690
S'C562609'
p7691
asS'601101'
p7692
(lp7693
S'C537140'
p7694
asS'605289'
p7695
(lp7696
S'C565344'
p7697
asS'601104'
p7698
(lp7699
g7685
asS'605285'
p7700
(lp7701
S'C535813'
p7702
asS'605284'
p7703
(lp7704
g4925
asS'269250'
p7705
(lp7706
S'C536637'
p7707
asS'605280'
p7708
(lp7709
S'C537485'
p7710
asS'610678'
p7711
(lp7712
S'C565690'
p7713
asS'605282'
p7714
(lp7715
S'C536958'
p7716
asS'105200'
p7717
(lp7718
S'C538249'
p7719
asS'162500'
p7720
(lp7721
S'C536965'
p7722
asS'300067'
p7723
(lp7724
S'D054221'
p7725
ag2209
asS'609376'
p7726
(lp7727
S'C563728'
p7728
asS'605115'
p7729
(lp7730
S'C565359'
p7731
asS'168000'
p7732
(lp7733
g6662
aS'D002345'
p7734
aS'C566831'
p7735
aS'D010236'
p7736
aS'D005925'
p7737
asS'613068'
p7738
(lp7739
S'C567791'
p7740
asS'125485'
p7741
(lp7742
S'C538216'
p7743
aS'D003811'
p7744
aS'C531665'
p7745
asS'236635'
p7746
(lp7747
g4538
asS'601728'
p7748
(lp7749
g4838
ag1989
aS'D008579'
p7750
ag2904
aS'C566636'
p7751
asS'608358'
p7752
(lp7753
g7244
asS'204200'
p7754
(lp7755
S'D009472'
p7756
asS'605844'
p7757
(lp7758
S'C565280'
p7759
asS'608354'
p7760
(lp7761
S'C564254'
p7762
asS'608355'
p7763
(lp7764
g235
asS'275100'
p7765
(lp7766
S'C536917'
p7767
asS'604536'
p7768
(lp7769
S'C536183'
p7770
asS'604537'
p7771
(lp7772
S'C536602'
p7773
asS'125310'
p7774
(lp7775
S'D046589'
p7776
asS'615953'
p7777
(lp7778
S'C563653'
p7779
asS'610113'
p7780
(lp7781
S'C563268'
p7782
asS'113800'
p7783
(lp7784
S'D017488'
p7785
aS'C566187'
p7786
asS'271245'
p7787
(lp7788
S'C535523'
p7789
asS'609115'
p7790
(lp7791
S'C563794'
p7792
asS'278750'
p7793
(lp7794
S'C536766'
p7795
asS'609413'
p7796
(lp7797
g297
asS'600740'
p7798
(lp7799
S'C537147'
p7800
asS'613488'
p7801
(lp7802
S'D018208'
p7803
asS'266150'
p7804
(lp7805
S'D015324'
p7806
asS'607197'
p7807
(lp7808
g4729
asS'136550'
p7809
(lp7810
S'C537835'
p7811
asS'608516'
p7812
(lp7813
S'D003865'
p7814
aS'D003866'
p7815
aS'D016574'
p7816
asS'604229'
p7817
(lp7818
S'C537884'
p7819
asS'611302'
p7820
(lp7821
S'C566969'
p7822
asS'255300'
p7823
(lp7824
S'D009224'
p7825
asS'146500'
p7826
(lp7827
S'D007024'
p7828
aS'D054970'
p7829
asS'232400'
p7830
(lp7831
S'D006010'
p7832
aS'C566889'
p7833
aS'C566890'
p7834
aS'C566891'
p7835
asS'254780'
p7836
(lp7837
S'D020192'
p7838
aS'C564976'
p7839
asS'604400'
p7840
(lp7841
S'C565776'
p7842
asS'604401'
p7843
(lp7844
S'C565775'
p7845
asS'133540'
p7846
(lp7847
S'D003057'
p7848
asS'604403'
p7849
(lp7850
g3221
aS'C567820'
p7851
asS'611494'
p7852
(lp7853
S'C566932'
p7854
asS'520000'
p7855
(lp7856
g76
asS'204700'
p7857
(lp7858
S'C567146'
p7859
asS'157300'
p7860
(lp7861
S'D008881'
p7862
asS'243700'
p7863
(lp7864
S'D007589'
p7865
asS'184850'
p7866
(lp7867
S'D016750'
p7868
asS'610205'
p7869
(lp7870
S'D016738'
p7871
asS'610204'
p7872
(lp7873
S'C537745'
p7874
asS'610202'
p7875
(lp7876
S'C565703'
p7877
asS'167800'
p7878
(lp7879
S'C566837'
p7880
asS'516060'
p7881
(lp7882
g416
ag3836
aS'C564020'
p7883
asS'608394'
p7884
(lp7885
S'C564246'
p7886
asS'176620'
p7887
(lp7888
S'C531791'
p7889
asS'605934'
p7890
(lp7891
S'C565274'
p7892
asS'608224'
p7893
(lp7894
S'C564272'
p7895
asS'107100'
p7896
(lp7897
S'C567938'
p7898
aS'C537771'
p7899
asS'601130'
p7900
(lp7901
g406
asS'611307'
p7902
(lp7903
S'C566968'
p7904
asS'216400'
p7905
(lp7906
g7848
asS'600525'
p7907
(lp7908
g1295
asS'226700'
p7909
(lp7910
g7358
asS'219730'
p7911
(lp7912
S'C565657'
p7913
asS'256030'
p7914
(lp7915
S'C538349'
p7916
asS'156232'
p7917
(lp7918
S'C535547'
p7919
asS'613791'
p7920
(lp7921
S'C565360'
p7922
asS'613792'
p7923
(lp7924
S'C536804'
p7925
asS'604232'
p7926
(lp7927
S'C565814'
p7928
asS'607625'
p7929
(lp7930
S'C536119'
p7931
asS'607624'
p7932
(lp7933
S'C537302'
p7934
asS'607626'
p7935
(lp7936
S'C564365'
p7937
asS'211750'
p7938
(lp7939
S'C537418'
p7940
asS'607998'
p7941
(lp7942
g1144
asS'610071'
p7943
(lp7944
S'C566450'
p7945
asS'169400'
p7946
(lp7947
S'D010381'
p7948
asS'252011'
p7949
(lp7950
S'C565375'
p7951
asS'273400'
p7952
(lp7953
S'C535642'
p7954
asS'614380'
p7955
(lp7956
S'C565167'
p7957
asS'600251'
p7958
(lp7959
S'C537736'
p7960
asS'606574'
p7961
(lp7962
S'C564696'
p7963
asS'602390'
p7964
(lp7965
S'C566556'
p7966
aS'C537247'
p7967
asS'131960'
p7968
(lp7969
S'C535959'
p7970
asS'608646'
p7971
(lp7972
S'C535279'
p7973
asS'271665'
p7974
(lp7975
S'C564794'
p7976
asS'608644'
p7977
(lp7978
S'C535278'
p7979
asS'230000'
p7980
(lp7981
S'D005645'
p7982
asS'608643'
p7983
(lp7984
S'C537437'
p7985
asS'138800'
p7986
(lp7987
g5602
asS'604717'
p7988
(lp7989
S'C565754'
p7990
asS'258650'
p7991
(lp7992
g5448
asS'174400'
p7993
(lp7994
S'C536332'
p7995
asS'606190'
p7996
(lp7997
S'C536266'
p7998
asS'608649'
p7999
(lp8000
S'C536271'
p8001
asS'610840'
p8002
(lp8003
S'C563655'
p8004
asS'612975'
p8005
(lp8006
S'D012893'
p8007
asS'610842'
p8008
(lp8009
S'C563654'
p8010
asS'193065'
p8011
(lp8012
g5803
asS'213700'
p8013
(lp8014
S'D019294'
p8015
asS'611247'
p8016
(lp8017
S'C567073'
p8018
asS'115150'
p8019
(lp8020
S'C535579'
p8021
asS'607199'
p8022
(lp8023
S'C562509'
p8024
asS'137350'
p8025
(lp8026
S'C537459'
p8027
asS'252650'
p8028
(lp8029
g798
asS'178500'
p8030
(lp8031
S'D054990'
p8032
asS'301900'
p8033
(lp8034
S'C536575'
p8035
asS'267010'
p8036
(lp8037
S'C537756'
p8038
asS'607196'
p8039
(lp8040
S'C538247'
p8041
asS'175020'
p8042
(lp8043
S'C562464'
p8044
asS'606718'
p8045
(lp8046
g3922
aS'C535504'
p8047
aS'C536170'
p8048
ag6184
asS'606719'
p8049
(lp8050
g6098
asS'111700'
p8051
(lp8052
S'C566210'
p8053
asS'314400'
p8054
(lp8055
S'C535576'
p8056
asS'137750'
p8057
(lp8058
S'C564234'
p8059
asS'606713'
p8060
(lp8061
S'C536529'
p8062
asS'145981'
p8063
(lp8064
S'C537146'
p8065
asS'145980'
p8066
(lp8067
S'C537145'
p8068
asS'138500'
p8069
(lp8070
g922
asS'217980'
p8071
(lp8072
S'C563127'
p8073
asS'131760'
p8074
(lp8075
S'D016110'
p8076
asS'606483'
p8077
(lp8078
S'C564702'
p8079
asS'606480'
p8080
(lp8081
g5625
asS'609909'
p8082
(lp8083
S'C563690'
p8084
asS'300749'
p8085
(lp8086
S'C567466'
p8087
asS'268900'
p8088
(lp8089
S'C537236'
p8090
asS'205950'
p8091
(lp8092
S'C567145'
p8093
asS'214950'
p8094
(lp8095
g2055
asS'160775'
p8096
(lp8097
g3500
ag4162
asS'160800'
p8098
(lp8099
g6334
asS'607063'
p8100
(lp8101
g2709
asS'301835'
p8102
(lp8103
S'C535388'
p8104
asS'200400'
p8105
(lp8106
S'C536011'
p8107
asS'301830'
p8108
(lp8109
S'C535380'
p8110
asS'400044'
p8111
(lp8112
S'C567574'
p8113
aS'C567575'
p8114
asS'313350'
p8115
(lp8116
S'C564056'
p8117
asS'228600'
p8118
(lp8119
S'D057770'
p8120
asS'313700'
p8121
(lp8122
S'D013734'
p8123
asS'248500'
p8124
(lp8125
S'D008363'
p8126
asS'606157'
p8127
(lp8128
g1338
asS'613135'
p8129
(lp8130
S'C567730'
p8131
asS'606158'
p8132
(lp8133
g3356
asS'606159'
p8134
(lp8135
S'C548080'
p8136
asS'170500'
p8137
(lp8138
S'D020513'
p8139
aS'C566809'
p8140
asS'258500'
p8141
(lp8142
S'C537127'
p8143
asS'140000'
p8144
(lp8145
S'C535627'
p8146
asS'606394'
p8147
(lp8148
S'C565231'
p8149
asS'606392'
p8150
(lp8151
S'C563451'
p8152
asS'612529'
p8153
(lp8154
S'C567279'
p8155
asS'253010'
p8156
(lp8157
S'D009085'
p8158
asS'612525'
p8159
(lp8160
S'C567283'
p8161
asS'612526'
p8162
(lp8163
S'C567282'
p8164
asS'300400'
p8165
(lp8166
g5853
asS'612520'
p8167
(lp8168
g5192
asS'612521'
p8169
(lp8170
S'C567285'
p8171
asS'612522'
p8172
(lp8173
S'C567284'
p8174
asS'607398'
p8175
(lp8176
S'C564577'
p8177
asS'141749'
p8178
(lp8179
S'C562716'
p8180
asS'181400'
p8181
(lp8182
S'C566695'
p8183
asS'300387'
p8184
(lp8185
S'C564522'
p8186
asS'610883'
p8187
(lp8188
S'C538355'
p8189
asS'256840'
p8190
(lp8191
S'C564948'
p8192
asS'603506'
p8193
(lp8194
g649
ag7072
ag2568
asS'132700'
p8195
(lp8196
S'C536611'
p8197
asS'302905'
p8198
(lp8199
S'C535559'
p8200
asS'207950'
p8201
(lp8202
S'D001139'
p8203
asS'616214'
p8204
(lp8205
S'C562776'
p8206
asS'167300'
p8207
(lp8208
S'D010145'
p8209
asS'127550'
p8210
(lp8211
S'C565079'
p8212
asS'187300'
p8213
(lp8214
S'D013683'
p8215
asS'610921'
p8216
(lp8217
S'C567046'
p8218
asS'304400'
p8219
(lp8220
S'C536424'
p8221
asS'309350'
p8222
(lp8223
g159
asS'610926'
p8224
(lp8225
S'C565757'
p8226
asS'276300'
p8227
(lp8228
g109
asS'611938'
p8229
(lp8230
S'C536334'
p8231
asS'120790'
p8232
(lp8233
S'C565168'
p8234
asS'613008'
p8235
(lp8236
S'C567816'
p8237
asS'125480'
p8238
(lp8239
S'C565111'
p8240
asS'262400'
p8241
(lp8242
S'C537404'
p8243
asS'300345'
p8244
(lp8245
S'C564531'
p8246
asS'606889'
p8247
(lp8248
g3438
asS'130700'
p8249
(lp8250
S'C565057'
p8251
asS'311250'
p8252
(lp8253
S'D020163'
p8254
asS'117000'
p8255
(lp8256
g7031
ag7033
asS'616034'
p8257
(lp8258
S'C565624'
p8259
asS'613007'
p8260
(lp8261
S'C567817'
p8262
asS'104300'
p8263
(lp8264
S'D000544'
p8265
ag4965
aS'C566299'
p8266
aS'C563254'
p8267
asS'253300'
p8268
(lp8269
g1813
asS'300640'
p8270
(lp8271
S'C564468'
p8272
asS'612233'
p8273
(lp8274
S'C567390'
p8275
asS'612237'
p8276
(lp8277
S'C563195'
p8278
asS'120330'
p8279
(lp8280
S'C537168'
p8281
asS'613193'
p8282
(lp8283
S'C567713'
p8284
asS'201020'
p8285
(lp8286
S'C537287'
p8287
asS'610688'
p8288
(lp8289
S'C537689'
p8290
asS'150699'
p8291
(lp8292
S'D007889'
p8293
asS'610682'
p8294
(lp8295
S'C565200'
p8296
asS'610687'
p8297
(lp8298
S'C565198'
p8299
asS'277410'
p8300
(lp8301
S'C564743'
p8302
asS'260800'
p8303
(lp8304
S'C536652'
p8305
asS'616145'
p8306
(lp8307
S'C535347'
p8308
asS'233910'
p8309
(lp8310
S'C562656'
p8311
ag5330
asS'610448'
p8312
(lp8313
S'C535924'
p8314
asS'613312'
p8315
(lp8316
S'C567647'
p8317
asS'613313'
p8318
(lp8319
S'C566557'
p8320
asS'610445'
p8321
(lp8322
S'C566474'
p8323
asS'610444'
p8324
(lp8325
S'C566475'
p8326
asS'610441'
p8327
(lp8328
S'C566478'
p8329
asS'613319'
p8330
(lp8331
S'C567645'
p8332
asS'610443'
p8333
(lp8334
S'C566476'
p8335
asS'612304'
p8336
(lp8337
g257
asS'612300'
p8338
(lp8339
S'C567355'
p8340
asS'609698'
p8341
(lp8342
S'C566454'
p8343
asS'613757'
p8344
(lp8345
S'C563674'
p8346
asS'602473'
p8347
(lp8348
S'C535737'
p8349
asS'218000'
p8350
(lp8351
S'C536446'
p8352
asS'602471'
p8353
(lp8354
S'C566544'
p8355
asS'167210'
p8356
(lp8357
g5599
asS'602477'
p8358
(lp8359
S'C566541'
p8360
asS'215400'
p8361
(lp8362
S'D002817'
p8363
asS'602475'
p8364
(lp8365
S'C537143'
p8366
asS'259100'
p8367
(lp8368
g1380
asS'308205'
p8369
(lp8370
S'C536085'
p8371
asS'220600'
p8372
(lp8373
S'C565647'
p8374
asS'603273'
p8375
(lp8376
g3346
ag1939
aS'C535847'
p8377
asS'613013'
p8378
(lp8379
S'C538119'
p8380
asS'603776'
p8381
(lp8382
S'C566337'
p8383
asS'602671'
p8384
(lp8385
g2190
asS'613794'
p8386
(lp8387
S'C566718'
p8388
asS'603278'
p8389
(lp8390
S'C538457'
p8391
asS'253270'
p8392
(lp8393
S'D028922'
p8394
asS'309000'
p8395
(lp8396
S'D009800'
p8397
asS'602497'
p8398
(lp8399
g5445
asS'305620'
p8400
(lp8401
S'C538064'
p8402
asS'608647'
p8403
(lp8404
S'C563886'
p8405
asS'602499'
p8406
(lp8407
S'C566533'
p8408
asS'603383'
p8409
(lp8410
S'C566383'
p8411
asS'108721'
p8412
(lp8413
S'C579928'
p8414
asS'188840'
p8415
(lp8416
g1992
asS'208300'
p8417
(lp8418
S'D002915'
p8419
asS'308240'
p8420
(lp8421
S'D008232'
p8422
asS'243180'
p8423
(lp8424
S'C537394'
p8425
asS'188545'
p8426
(lp8427
S'C566049'
p8428
asS'251255'
p8429
(lp8430
S'C567101'
p8431
asS'613265'
p8432
(lp8433
S'C567680'
p8434
asS'613266'
p8435
(lp8436
S'C567679'
p8437
asS'613267'
p8438
(lp8439
S'C567678'
p8440
asS'613268'
p8441
(lp8442
S'C567677'
p8443
asS'300194'
p8444
(lp8445
S'C564570'
p8446
asS'605724'
p8447
(lp8448
g6135
asS'247200'
p8449
(lp8450
S'D054221'
p8451
asS'611136'
p8452
(lp8453
S'C567002'
p8454
asS'602875'
p8455
(lp8456
S'C535661'
p8457
ag7558
asS'612015'
p8458
(lp8459
S'C567437'
p8460
asS'612016'
p8461
(lp8462
S'C567436'
p8463
asS'612017'
p8464
(lp8465
S'C567435'
p8466
asS'612018'
p8467
(lp8468
S'C567434'
p8469
asS'300355'
p8470
(lp8471
S'C564528'
p8472
asS'300354'
p8473
(lp8474
S'C567069'
p8475
asS'300352'
p8476
(lp8477
S'C535598'
p8478
asS'125635'
p8479
(lp8480
S'C536612'
p8481
asS'271322'
p8482
(lp8483
g1615
asS'609508'
p8484
(lp8485
S'C563709'
p8486
ag2024
asS'203400'
p8487
(lp8488
S'C537806'
p8489
asS'252930'
p8490
(lp8491
g2268
asS'300604'
p8492
(lp8493
S'C564476'
p8494
asS'601283'
p8495
(lp8496
S'C563359'
p8497
asS'305700'
p8498
(lp8499
S'D054331'
p8500
asS'224750'
p8501
(lp8502
S'C565607'
p8503
asS'601287'
p8504
(lp8505
S'C535896'
p8506
asS'609741'
p8507
(lp8508
S'C565725'
p8509
asS'610069'
p8510
(lp8511
S'C566451'
p8512
asS'123100'
p8513
(lp8514
S'D003398'
p8515
asS'609296'
p8516
(lp8517
S'C563745'
p8518
asS'609745'
p8519
(lp8520
S'C565724'
p8521
asS'237310'
p8522
(lp8523
S'C536109'
p8524
asS'186300'
p8525
(lp8526
S'C538155'
p8527
asS'601110'
p8528
(lp8529
S'C535742'
p8530
asS'125490'
p8531
(lp8532
g7744
ag7745
asS'603386'
p8533
(lp8534
S'C537842'
p8535
asS'222600'
p8536
(lp8537
g8048
aS'C565626'
p8538
asS'106260'
p8539
(lp8540
g8377
asS'226000'
p8541
(lp8542
S'D004695'
p8543
asS'601869'
p8544
(lp8545
S'C566611'
p8546
asS'609500'
p8547
(lp8548
S'C536522'
p8549
asS'605432'
p8550
(lp8551
S'C565328'
p8552
asS'113650'
p8553
(lp8554
S'D019280'
p8555
asS'265050'
p8556
(lp8557
S'C535586'
p8558
asS'105210'
p8559
(lp8560
S'C567782'
p8561
asS'210900'
p8562
(lp8563
S'D001816'
p8564
asS'108985'
p8565
(lp8566
S'C566236'
p8567
asS'603387'
p8568
(lp8569
S'C566381'
p8570
asS'608340'
p8571
(lp8572
S'C564256'
p8573
asS'609128'
p8574
(lp8575
S'C563791'
p8576
asS'609129'
p8577
(lp8578
S'C563790'
p8579
asS'608345'
p8580
(lp8581
S'C537855'
p8582
asS'180860'
p8583
(lp8584
S'D056730'
p8585
asS'143850'
p8586
(lp8587
S'C564174'
p8588
asS'122400'
p8589
(lp8590
S'C565155'
p8591
asS'271250'
p8592
(lp8593
S'C537309'
p8594
asS'600884'
p8595
(lp8596
S'C536231'
p8597
asS'600733'
p8598
(lp8599
g8152
asS'600886'
p8600
(lp8601
S'C538137'
p8602
asS'613490'
p8603
(lp8604
S'D019896'
p8605
asS'600880'
p8606
(lp8607
S'D006502'
p8608
asS'600737'
p8609
(lp8610
S'C538329'
p8611
asS'600882'
p8612
(lp8613
S'C537989'
p8614
asS'243060'
p8615
(lp8616
S'C562903'
p8617
asS'268200'
p8618
(lp8619
S'C564832'
p8620
asS'605544'
p8621
(lp8622
S'C565323'
p8623
asS'613227'
p8624
(lp8625
S'C567690'
p8626
asS'605543'
p8627
(lp8628
S'C565324'
p8629
asS'608507'
p8630
(lp8631
g2225
aS'C562851'
p8632
asS'553000'
p8633
(lp8634
S'D018249'
p8635
asS'604233'
p8636
(lp8637
S'C565809'
p8638
asS'146510'
p8639
(lp8640
S'D054975'
p8641
asS'601607'
p8642
(lp8643
g3075
asS'601606'
p8644
(lp8645
g4957
asS'122880'
p8646
(lp8647
S'C536453'
p8648
asS'241510'
p8649
(lp8650
S'C562440'
p8651
asS'604145'
p8652
(lp8653
S'C565824'
p8654
asS'608236'
p8655
(lp8656
S'C564269'
p8657
asS'202200'
p8658
(lp8659
S'C565974'
p8660
asS'164280'
p8661
(lp8662
S'C537734'
p8663
asS'142690'
p8664
(lp8665
S'C538118'
p8666
asS'604418'
p8667
(lp8668
S'C567134'
p8669
asS'607765'
p8670
(lp8671
S'C535442'
p8672
asS'610244'
p8673
(lp8674
S'C565214'
p8675
asS'113900'
p8676
(lp8677
S'C566873'
p8678
aS'C566185'
p8679
aS'C566186'
p8680
asS'608728'
p8681
(lp8682
S'C563869'
p8683
asS'609633'
p8684
(lp8685
S'C566501'
p8686
asS'609634'
p8687
(lp8688
S'C566500'
p8689
asS'612838'
p8690
(lp8691
S'C567556'
p8692
ag4187
asS'609637'
p8693
(lp8694
S'C566464'
p8695
asS'609638'
p8696
(lp8697
S'C535493'
p8698
asS'257550'
p8699
(lp8700
S'C537423'
p8701
asS'137920'
p8702
(lp8703
S'C535520'
p8704
asS'600089'
p8705
(lp8706
S'C538111'
p8707
asS'604091'
p8708
(lp8709
S'D052456'
p8710
aS'C538394'
p8711
asS'601208'
p8712
(lp8713
S'C563371'
p8714
asS'156200'
p8715
(lp8716
S'C566947'
p8717
asS'256020'
p8718
(lp8719
S'C537228'
p8720
asS'233690'
p8721
(lp8722
S'C565533'
p8723
asS'600080'
p8724
(lp8725
S'C536093'
p8726
asS'600081'
p8727
(lp8728
S'C564005'
p8729
asS'600082'
p8730
(lp8731
S'D011470'
p8732
asS'255200'
p8733
(lp8734
S'C562934'
p8735
asS'137100'
p8736
(lp8737
S'C536290'
p8738
asS'605233'
p8739
(lp8740
S'C535950'
p8741
asS'232500'
p8742
(lp8743
S'D006011'
p8744
aS'C565539'
p8745
aS'C565542'
p8746
aS'C565543'
p8747
asS'146200'
p8748
(lp8749
S'C537156'
p8750
aS'C562783'
p8751
aS'C564148'
p8752
asS'600649'
p8753
(lp8754
S'C563462'
p8755
asS'178370'
p8756
(lp8757
S'C562833'
p8758
asS'607616'
p8759
(lp8760
S'D052537'
p8761
asS'264470'
p8762
(lp8763
S'C536662'
p8764
asS'613783'
p8765
(lp8766
S'C565170'
p8767
asS'216360'
p8768
(lp8769
S'C536430'
p8770
asS'607608'
p8771
(lp8772
S'C567268'
p8773
asS'175900'
p8774
(lp8775
g313
asS'264700'
p8776
(lp8777
S'C562688'
p8778
asS'600060'
p8779
(lp8780
S'C564007'
p8781
asS'234580'
p8782
(lp8783
S'C535994'
p8784
asS'131600'
p8785
(lp8786
S'D004814'
p8787
asS'602440'
p8788
(lp8789
S'C538253'
p8790
asS'178400'
p8791
(lp8792
S'C535833'
p8793
asS'202110'
p8794
(lp8795
S'C538237'
p8796
aS'C567076'
p8797
asS'608654'
p8798
(lp8799
S'D009477'
p8800
asS'611254'
p8801
(lp8802
S'D055673'
p8803
asS'611252'
p8804
(lp8805
S'C566983'
p8806
asS'608653'
p8807
(lp8808
S'C563884'
p8809
asS'134797'
p8810
(lp8811
g1010
asS'612780'
p8812
(lp8813
S'C557674'
p8814
asS'612781'
p8815
(lp8816
S'C567564'
p8817
asS'612782'
p8818
(lp8819
S'C557826'
p8820
asS'612783'
p8821
(lp8822
S'C557827'
p8823
asS'606690'
p8824
(lp8825
S'D018192'
p8826
asS'174050'
p8827
(lp8828
S'C536330'
p8829
asS'606963'
p8830
(lp8831
S'D029424'
p8832
aS'C564641'
p8833
aS'C566978'
p8834
asS'174500'
p8835
(lp8836
g1316
ag1317
asS'610878'
p8837
(lp8838
S'C567053'
p8839
asS'606966'
p8840
(lp8841
S'C564640'
p8842
asS'305900'
p8843
(lp8844
g2502
asS'612961'
p8845
(lp8846
S'C567839'
p8847
asS'310500'
p8848
(lp8849
S'C536122'
p8850
aS'D009755'
p8851
asS'211530'
p8852
(lp8853
S'C537111'
p8854
asS'149400'
p8855
(lp8856
S'C538136'
p8857
asS'600462'
p8858
(lp8859
S'C536101'
p8860
asS'613870'
p8861
(lp8862
S'C563939'
p8863
asS'175050'
p8864
(lp8865
g5796
asS'267000'
p8866
(lp8867
S'C536399'
p8868
asS'143100'
p8869
(lp8870
S'D006816'
p8871
asS'226600'
p8872
(lp8873
g102
aS'C567121'
p8874
aS'C567122'
p8875
asS'193250'
p8876
(lp8877
S'C562456'
p8878
asS'610896'
p8879
(lp8880
S'D019280'
p8881
asS'231690'
p8882
(lp8883
S'C562818'
p8884
asS'115210'
p8885
(lp8886
g303
asS'606703'
p8887
(lp8888
S'C564676'
p8889
asS'606705'
p8890
(lp8891
S'C564675'
p8892
asS'610898'
p8893
(lp8894
S'C567050'
p8895
asS'262890'
p8896
(lp8897
S'C563120'
p8898
asS'607140'
p8899
(lp8900
S'D000793'
p8901
asS'300752'
p8902
(lp8903
S'C567464'
p8904
asS'300751'
p8905
(lp8906
S'C536761'
p8907
asS'607143'
p8908
(lp8909
S'C535745'
p8910
asS'609915'
p8911
(lp8912
S'C563688'
p8913
asS'300756'
p8914
(lp8915
S'C567463'
p8916
asS'300755'
p8917
(lp8918
S'C537409'
p8919
aS'C562478'
p8920
asS'131400'
p8921
(lp8922
S'C562722'
p8923
asS'117100'
p8924
(lp8925
g3532
asS'300758'
p8926
(lp8927
S'C567462'
p8928
asS'273300'
p8929
(lp8930
S'C563236'
p8931
aS'D018239'
p8932
aS'C537844'
p8933
aS'D018240'
p8934
aS'C562472'
p8935
asS'259690'
p8936
(lp8937
S'C537706'
p8938
asS'612656'
p8939
(lp8940
S'C567207'
p8941
asS'127300'
p8942
(lp8943
g5868
aS'C562398'
p8944
asS'213600'
p8945
(lp8946
S'C536275'
p8947
asS'118900'
p8948
(lp8949
g6578
asS'300807'
p8950
(lp8951
S'C567581'
p8952
asS'612653'
p8953
(lp8954
S'C567208'
p8955
asS'612650'
p8956
(lp8957
S'C567211'
p8958
asS'612651'
p8959
(lp8960
S'C567210'
p8961
asS'160741'
p8962
(lp8963
g7391
asS'177400'
p8964
(lp8965
S'C537417'
p8966
aS'C566751'
p8967
asS'255900'
p8968
(lp8969
S'D009230'
p8970
asS'301800'
p8971
(lp8972
g5490
asS'607812'
p8973
(lp8974
S'C564332'
p8975
asS'607541'
p8976
(lp8977
S'C535474'
p8978
asS'607542'
p8979
(lp8980
S'D029593'
p8981
aS'D029597'
p8982
asS'243310'
p8983
(lp8984
S'C565462'
p8985
asS'612292'
p8986
(lp8987
S'C567357'
p8988
asS'241100'
p8989
(lp8990
S'D005058'
p8991
asS'606367'
p8992
(lp8993
S'C565232'
p8994
asS'219500'
p8995
(lp8996
S'C535408'
p8997
asS'131800'
p8998
(lp8999
g808
asS'180090'
p9000
(lp9001
S'C562733'
p9002
asS'613123'
p9003
(lp9004
S'C567732'
p9005
asS'613122'
p9006
(lp9007
S'C567733'
p9008
asS'613120'
p9009
(lp9010
S'C567734'
p9011
asS'184252'
p9012
(lp9013
S'C535797'
p9014
asS'590010'
p9015
(lp9016
g75
asS'309900'
p9017
(lp9018
S'D016532'
p9019
asS'256540'
p9020
(lp9021
S'C536411'
p9022
asS'118700'
p9023
(lp9024
S'D002819'
p9025
asS'268800'
p9026
(lp9027
S'D012497'
p9028
aS'C564825'
p9029
aS'C564826'
p9030
aS'C564827'
p9031
asS'309548'
p9032
(lp9033
S'D005600'
p9034
asS'603285'
p9035
(lp9036
S'C566393'
p9037
asS'267750'
p9038
(lp9039
S'C537209'
p9040
asS'603513'
p9041
(lp9042
S'C567853'
p9043
asS'114290'
p9044
(lp9045
S'D055036'
p9046
ag5663
asS'603511'
p9047
(lp9048
S'C566589'
p9049
asS'603041'
p9050
(lp9051
S'C537477'
p9052
asS'603516'
p9053
(lp9054
S'C566874'
p9055
asS'107200'
p9056
(lp9057
S'C535983'
p9058
asS'162200'
p9059
(lp9060
S'D009456'
p9061
asS'245150'
p9062
(lp9063
S'C536167'
p9064
asS'234050'
p9065
(lp9066
S'D054463'
p9067
asS'612350'
p9068
(lp9069
S'C567340'
p9070
asS'251120'
p9071
(lp9072
S'C565386'
p9073
asS'214100'
p9074
(lp9075
g3985
asS'214450'
p9076
(lp9077
S'C537301'
p9078
asS'603678'
p9079
(lp9080
S'C566344'
p9081
asS'142989'
p9082
(lp9083
g4857
asS'210600'
p9084
(lp9085
S'C537533'
p9086
asS'612227'
p9087
(lp9088
S'D003922'
p9089
asS'608220'
p9090
(lp9091
S'C536861'
p9092
asS'300500'
p9093
(lp9094
S'C537863'
p9095
asS'259775'
p9096
(lp9097
S'C535282'
p9098
asS'220290'
p9099
(lp9100
g5987
asS'608885'
p9101
(lp9102
S'C563840'
p9103
asS'265500'
p9104
(lp9105
S'D011666'
p9106
asS'104310'
p9107
(lp9108
S'C536595'
p9109
asS'603604'
p9110
(lp9111
g4401
asS'114580'
p9112
(lp9113
S'C567779'
p9114
asS'132600'
p9115
(lp9116
S'D018296'
p9117
asS'163800'
p9118
(lp9119
S'C563513'
p9120
asS'230800'
p9121
(lp9122
g731
asS'610361'
p9123
(lp9124
S'C563675'
p9125
asS'163729'
p9126
(lp9127
S'C563514'
p9128
asS'607600'
p9129
(lp9130
S'C564368'
p9131
asS'103500'
p9132
(lp9133
S'C536919'
p9134
asS'271980'
p9135
(lp9136
S'C535803'
p9137
asS'605751'
p9138
(lp9139
g2646
asS'120300'
p9140
(lp9141
S'C535968'
p9142
asS'609254'
p9143
(lp9144
S'C563763'
p9145
asS'222470'
p9146
(lp9147
S'C565627'
p9148
asS'276950'
p9149
(lp9150
S'C564752'
p9151
aS'C564751'
p9152
asS'261540'
p9153
(lp9154
S'C537617'
p9155
asS'121300'
p9156
(lp9157
S'D046349'
p9158
aS'C562816'
p9159
asS'187800'
p9160
(lp9161
S'C566061'
p9162
asS'609597'
p9163
(lp9164
S'C566510'
p9165
asS'603860'
p9166
(lp9167
S'C548033'
p9168
asS'241410'
p9169
(lp9170
S'C537157'
p9171
asS'131950'
p9172
(lp9173
S'C535962'
p9174
asS'603009'
p9175
(lp9176
g3240
ag3875
ag7182
asS'600416'
p9177
(lp9178
S'C562932'
p9179
asS'277950'
p9180
(lp9181
S'C536709'
p9182
asS'613309'
p9183
(lp9184
S'C567649'
p9185
asS'613308'
p9186
(lp9187
S'C567650'
p9188
asS'610474'
p9189
(lp9190
S'C537975'
p9191
asS'610475'
p9192
(lp9193
S'C566472'
p9194
asS'610476'
p9195
(lp9196
S'C566471'
p9197
asS'612313'
p9198
(lp9199
S'C567350'
p9200
asS'166350'
p9201
(lp9202
g6779
asS'602085'
p9203
(lp9204
S'C566585'
p9205
asS'166600'
p9206
(lp9207
S'D010022'
p9208
asS'300218'
p9209
(lp9210
S'C537449'
p9211
asS'300216'
p9212
(lp9213
S'D058456'
p9214
asS'612319'
p9215
(lp9216
S'C567311'
p9217
asS'300215'
p9218
(lp9219
S'C564563'
p9220
asS'125800'
p9221
(lp9222
S'D018500'
p9223
asS'300210'
p9224
(lp9225
S'C564566'
p9226
asS'262700'
p9227
(lp9228
S'C567492'
p9229
asS'308230'
p9230
(lp9231
S'D053307'
p9232
asS'602398'
p9233
(lp9234
S'C566555'
p9235
asS'201475'
p9236
(lp9237
g3319
asS'201470'
p9238
(lp9239
S'C537596'
p9240
asS'153640'
p9241
(lp9242
S'C535507'
p9243
asS'154500'
p9244
(lp9245
S'D008342'
p9246
asS'165550'
p9247
(lp9248
S'C563492'
p9249
aS'C563493'
p9250
asS'305450'
p9251
(lp9252
S'C537923'
p9253
asS'602397'
p9254
(lp9255
g611
asS'300372'
p9256
(lp9257
S'C564524'
p9258
asS'306900'
p9259
(lp9260
S'D002836'
p9261
asS'194380'
p9262
(lp9263
S'C536764'
p9264
asS'203655'
p9265
(lp9266
S'C537055'
p9267
asS'135700'
p9268
(lp9269
S'C567739'
p9270
asS'254090'
p9271
(lp9272
S'C537521'
p9273
asS'300476'
p9274
(lp9275
S'C564507'
p9276
asS'117210'
p9277
(lp9278
S'C566146'
p9279
asS'113000'
p9280
(lp9281
S'C566196'
p9282
asS'254300'
p9283
(lp9284
S'C536089'
p9285
asS'192600'
p9286
(lp9287
g7245
aS'D024741'
p9288
asS'605738'
p9289
(lp9290
S'C565300'
p9291
asS'141500'
p9292
(lp9293
g5931
ag5932
asS'613277'
p9294
(lp9295
g7447
asS'605041'
p9296
(lp9297
S'C536611'
p9298
asS'613271'
p9299
(lp9300
S'C567674'
p9301
asS'613270'
p9302
(lp9303
S'C567675'
p9304
asS'128230'
p9305
(lp9306
S'C538007'
p9307
asS'300323'
p9308
(lp9309
S'C562583'
p9310
asS'612004'
p9311
(lp9312
S'C567438'
p9313
asS'128235'
p9314
(lp9315
S'C538001'
p9316
asS'612001'
p9317
(lp9318
S'C567439'
p9319
asS'300660'
p9320
(lp9321
S'C567065'
p9322
asS'312612'
p9323
(lp9324
S'C564065'
p9325
asS'121050'
p9326
(lp9327
S'C536211'
p9328
asS'300166'
p9329
(lp9330
S'C537465'
p9331
asS'105250'
p9332
(lp9333
S'C562643'
p9334
asS'612162'
p9335
(lp9336
S'C567405'
p9337
asS'400042'
p9338
(lp9339
S'D009845'
p9340
aS'C537587'
p9341
asS'609283'
p9342
(lp9343
S'C563750'
p9344
asS'610092'
p9345
(lp9346
S'C566447'
p9347
aS'C566448'
p9348
asS'604129'
p9349
(lp9350
S'C563192'
p9351
asS'610090'
p9352
(lp9353
S'C566449'
p9354
asS'609286'
p9355
(lp9356
S'C563747'
p9357
asS'610651'
p9358
(lp9359
S'C562590'
p9360
aS'C567061'
p9361
asS'308200'
p9362
(lp9363
S'C537365'
p9364
aS'C535878'
p9365
asS'610655'
p9366
(lp9367
S'C565691'
p9368
asS'605130'
p9369
(lp9370
S'C565358'
p9371
asS'269500'
p9372
(lp9373
S'C537525'
p9374
asS'611783'
p9375
(lp9376
S'C567086'
p9377
asS'125595'
p9378
(lp9379
S'C535374'
p9380
asS'211600'
p9381
(lp9382
g611
asS'314050'
p9383
(lp9384
S'C564050'
p9385
asS'211350'
p9386
(lp9387
S'C538128'
p9388
asS'188830'
p9389
(lp9390
S'D056733'
p9391
asS'610313'
p9392
(lp9393
S'C564791'
p9394
asS'608898'
p9395
(lp9396
S'C537251'
p9397
asS'300030'
p9398
(lp9399
S'C564727'
p9400
asS'609352'
p9401
(lp9402
S'C563730'
p9403
asS'610293'
p9404
(lp9405
S'C537277'
p9406
asS'605427'
p9407
(lp9408
g1672
aS'C537172'
p9409
ag2475
ag7
aS'C563218'
p9410
ag5147
asS'174810'
p9411
(lp9412
S'C536335'
p9413
asS'203500'
p9414
(lp9415
S'D000474'
p9416
asS'252010'
p9417
(lp9418
g1681
asS'254500'
p9419
(lp9420
S'D009101'
p9421
aS'C531616'
p9422
asS'609136'
p9423
(lp9424
S'C563789'
p9425
asS'609135'
p9426
(lp9427
S'D000741'
p9428
asS'604393'
p9429
(lp9430
S'C565778'
p9431
asS'168605'
p9432
(lp9433
S'C566822'
p9434
asS'609439'
p9435
(lp9436
S'C563720'
p9437
asS'131244'
p9438
(lp9439
g7379
asS'608404'
p9440
(lp9441
S'C564245'
p9442
asS'109350'
p9443
(lp9444
S'D005764'
p9445
asS'248250'
p9446
(lp9447
S'C537153'
p9448
asS'611431'
p9449
(lp9450
S'C548032'
p9451
asS'314580'
p9452
(lp9453
S'C536703'
p9454
asS'256300'
p9455
(lp9456
S'C535761'
p9457
asS'125370'
p9458
(lp9459
S'D020191'
p9460
asS'614158'
p9461
(lp9462
S'C562866'
p9463
asS'601388'
p9464
(lp9465
S'C563326'
p9466
asS'142669'
p9467
(lp9468
S'C564185'
p9469
asS'255320'
p9470
(lp9471
g7032
asS'600725'
p9472
(lp9473
S'C537342'
p9474
aS'D065707'
p9475
asS'222100'
p9476
(lp9477
g9089
asS'601382'
p9478
(lp9479
S'C535420'
p9480
asS'268210'
p9481
(lp9482
S'C537883'
p9483
asS'302045'
p9484
(lp9485
S'C580047'
p9486
asS'601386'
p9487
(lp9488
S'C563327'
p9489
asS'605555'
p9490
(lp9491
g2324
ag6023
asS'300378'
p9492
(lp9493
S'C564523'
p9494
asS'274230'
p9495
(lp9496
S'C564767'
p9497
asS'601152'
p9498
(lp9499
g8632
asS'605552'
p9500
(lp9501
S'D024821'
p9502
aS'C535554'
p9503
asS'133700'
p9504
(lp9505
S'D005097'
p9506
asS'133701'
p9507
(lp9508
S'C538356'
p9509
asS'608537'
p9510
(lp9511
g2683
ag659
aS'C563918'
p9512
asS'112600'
p9513
(lp9514
g4180
asS'178000'
p9515
(lp9516
S'C566740'
p9517
asS'138000'
p9518
(lp9519
S'C536827'
p9520
asS'516002'
p9521
(lp9522
g1681
ag3821
asS'176801'
p9523
(lp9524
S'C566435'
p9525
asS'264800'
p9526
(lp9527
S'D011561'
p9528
asS'604173'
p9529
(lp9530
S'C565820'
p9531
asS'516006'
p9532
(lp9533
g1241
ag2061
asS'142680'
p9534
(lp9535
S'C536657'
p9536
asS'608244'
p9537
(lp9538
S'C564268'
p9539
asS'516005'
p9540
(lp9541
g1241
aS'D017241'
p9542
ag5493
ag2061
asS'601419'
p9543
(lp9544
S'C563319'
p9545
asS'179300'
p9546
(lp9547
S'C562408'
p9548
asS'608691'
p9549
(lp9550
S'C563875'
p9551
asS'137600'
p9552
(lp9553
S'C535536'
p9554
asS'232600'
p9555
(lp9556
S'D006012'
p9557
asS'610260'
p9558
(lp9559
S'C565208'
p9560
asS'219750'
p9561
(lp9562
g32
asS'160120'
p9563
(lp9564
S'C563278'
p9565
ag1654
aS'C567174'
p9566
asS'609628'
p9567
(lp9568
S'C537839'
p9569
asS'600628'
p9570
(lp9571
S'D058247'
p9572
asS'608088'
p9573
(lp9574
S'C564296'
p9575
asS'609622'
p9576
(lp9577
S'C566504'
p9578
asS'609621'
p9579
(lp9580
S'C566505'
p9581
asS'609620'
p9582
(lp9583
S'C566506'
p9584
asS'137280'
p9585
(lp9586
S'D005758'
p9587
asS'605365'
p9588
(lp9589
S'C565336'
p9590
asS'268100'
p9591
(lp9592
S'C564835'
p9593
asS'600092'
p9594
(lp9595
S'C536123'
p9596
asS'303400'
p9597
(lp9598
S'C536426'
p9599
asS'270800'
p9600
(lp9601
S'C564811'
p9602
asS'601705'
p9603
(lp9604
S'C536781'
p9605
asS'601706'
p9606
(lp9607
S'C536771'
p9608
asS'608645'
p9609
(lp9610
S'C563888'
p9611
asS'601253'
p9612
(lp9613
S'C563362'
p9614
ag4
asS'211170'
p9615
(lp9616
S'C536577'
p9617
asS'612554'
p9618
(lp9619
S'C567259'
p9620
asS'607602'
p9621
(lp9622
S'C564367'
p9623
asS'300000'
p9624
(lp9625
S'C567932'
p9626
asS'600650'
p9627
(lp9628
g8755
aS'C563461'
p9629
ag1132
asS'600652'
p9630
(lp9631
S'C563460'
p9632
asS'612796'
p9633
(lp9634
S'C567559'
p9635
asS'229850'
p9636
(lp9637
S'C538070'
p9638
asS'612794'
p9639
(lp9640
S'C567561'
p9641
asS'300696'
p9642
(lp9643
S'C567480'
p9644
aS'C567591'
p9645
asS'600072'
p9646
(lp9647
S'D034062'
p9648
asS'188470'
p9649
(lp9650
S'D018263'
p9651
asS'226900'
p9652
(lp9653
g8047
asS'300699'
p9654
(lp9655
S'C567479'
p9656
asS'606554'
p9657
(lp9658
S'C564697'
p9659
asS'156850'
p9660
(lp9661
S'C563582'
p9662
asS'109800'
p9663
(lp9664
S'D001749'
p9665
asS'300455'
p9666
(lp9667
S'C567595'
p9668
asS'608662'
p9669
(lp9670
g7904
ag8332
asS'614307'
p9671
(lp9672
S'C565768'
p9673
asS'611225'
p9674
(lp9675
S'C567628'
p9676
asS'604772'
p9677
(lp9678
g8231
asS'611228'
p9679
(lp9680
S'C566984'
p9681
asS'604777'
p9682
(lp9683
S'C537265'
p9684
aS'C565749'
p9685
asS'608390'
p9686
(lp9687
g1065
ag1066
asS'608393'
p9688
(lp9689
S'C564247'
p9690
asS'600383'
p9691
(lp9692
S'C537348'
p9693
asS'613843'
p9694
(lp9695
g1563
asS'193000'
p9696
(lp9697
S'D014718'
p9698
asS'193003'
p9699
(lp9700
S'C537856'
p9701
asS'606952'
p9702
(lp9703
g4505
ag4506
asS'193900'
p9704
(lp9705
S'D053529'
p9706
asS'136880'
p9707
(lp9708
S'C562733'
p9709
asS'142330'
p9710
(lp9711
S'C564190'
p9712
asS'610158'
p9713
(lp9714
S'C535479'
p9715
asS'272460'
p9716
(lp9717
S'C535780'
p9718
asS'113300'
p9719
(lp9720
S'C566194'
p9721
asS'613688'
p9722
(lp9723
S'C563614'
p9724
asS'607778'
p9725
(lp9726
S'C564334'
p9727
asS'611664'
p9728
(lp9729
S'C567155'
p9730
asS'115200'
p9731
(lp9732
g5623
asS'300514'
p9733
(lp9734
S'C564497'
p9735
asS'131705'
p9736
(lp9737
S'C536979'
p9738
asS'607393'
p9739
(lp9740
g1969
aS'D010282'
p9741
asS'115195'
p9742
(lp9743
S'C566171'
p9744
asS'115197'
p9745
(lp9746
g2102
asS'115196'
p9747
(lp9748
S'C566170'
p9749
asS'160750'
p9750
(lp9751
S'D009220'
p9752
asS'609924'
p9753
(lp9754
S'C538246'
p9755
asS'607155'
p9756
(lp9757
g6222
asS'607154'
p9758
(lp9759
S'D065631'
p9760
asS'607152'
p9761
(lp9762
S'C536856'
p9763
asS'607151'
p9764
(lp9765
S'C536992'
p9766
asS'609923'
p9767
(lp9768
S'C563685'
p9769
asS'612645'
p9770
(lp9771
S'C567213'
p9772
asS'612644'
p9773
(lp9774
S'C567214'
p9775
asS'180069'
p9776
(lp9777
g4981
asS'305800'
p9778
(lp9779
S'C564423'
p9780
asS'612643'
p9781
(lp9782
S'C567215'
p9783
asS'612642'
p9784
(lp9785
S'C567216'
p9786
asS'206200'
p9787
(lp9788
S'C562385'
p9789
asS'611134'
p9790
(lp9791
S'C567003'
p9792
asS'612649'
p9793
(lp9794
S'C567212'
p9795
asS'133705'
p9796
(lp9797
S'C566245'
p9798
asS'611131'
p9799
(lp9800
g2452
asS'600273'
p9801
(lp9802
S'C536328'
p9803
asS'606829'
p9804
(lp9805
S'C564657'
p9806
asS'229200'
p9807
(lp9808
S'C536192'
p9809
asS'607801'
p9810
(lp9811
g9614
asS'600274'
p9812
(lp9813
S'D057180'
p9814
aS'C563003'
p9815
asS'612390'
p9816
(lp9817
S'C567324'
p9818
asS'145500'
p9819
(lp9820
S'C562386'
p9821
asS'606824'
p9822
(lp9823
S'C562602'
p9824
asS'309610'
p9825
(lp9826
S'C535274'
p9827
asS'590060'
p9828
(lp9829
g416
ag3184
asS'261600'
p9830
(lp9831
g3738
aS'D017042'
p9832
aS'C567494'
p9833
asS'603010'
p9834
(lp9835
S'C566418'
p9836
asS'256550'
p9837
(lp9838
S'C537366'
p9839
ag6079
aS'C564955'
p9840
asS'109150'
p9841
(lp9842
S'D017827'
p9843
asS'273750'
p9844
(lp9845
S'C535314'
p9846
asS'608180'
p9847
(lp9848
S'C564278'
p9849
asS'300519'
p9850
(lp9851
S'C564495'
p9852
asS'224050'
p9853
(lp9854
S'C535731'
p9855
asS'224500'
p9856
(lp9857
S'C538006'
p9858
asS'230600'
p9859
(lp9860
S'D016537'
p9861
asS'192350'
p9862
(lp9863
S'C536534'
p9864
aS'C536495'
p9865
asS'308350'
p9866
(lp9867
S'C567924'
p9868
asS'601284'
p9869
(lp9870
g3401
asS'603075'
p9871
(lp9872
S'C566411'
p9873
asS'218800'
p9874
(lp9875
S'D003414'
p9876
asS'171760'
p9877
(lp9878
g341
ag8651
ag342
asS'613752'
p9879
(lp9880
S'C564683'
p9881
asS'259900'
p9882
(lp9883
S'C536414'
p9884
asS'187360'
p9885
(lp9886
S'D013700'
p9887
asS'151100'
p9888
(lp9889
S'D044542'
p9890
asS'142993'
p9891
(lp9892
S'C566446'
p9893
asS'130720'
p9894
(lp9895
S'C537878'
p9896
asS'609259'
p9897
(lp9898
S'C563758'
p9899
asS'613064'
p9900
(lp9901
S'C567796'
p9902
asS'613065'
p9903
(lp9904
S'D054198'
p9905
asS'237900'
p9906
(lp9907
g6613
asS'221750'
p9908
(lp9909
S'C536710'
p9910
asS'155755'
p9911
(lp9912
S'C536149'
p9913
asS'612126'
p9914
(lp9915
S'C564288'
p9916
asS'114000'
p9917
(lp9918
S'D006958'
p9919
asS'300510'
p9920
(lp9921
S'C564499'
p9922
asS'603381'
p9923
(lp9924
g8414
asS'310370'
p9925
(lp9926
S'D020191'
p9927
asS'166260'
p9928
(lp9929
S'C536039'
p9930
asS'267430'
p9931
(lp9932
S'C537048'
p9933
asS'613863'
p9934
(lp9935
S'C567827'
p9936
asS'608893'
p9937
(lp9938
g922
asS'300518'
p9939
(lp9940
S'C564496'
p9941
asS'608890'
p9942
(lp9943
S'C563839'
p9944
asS'608895'
p9945
(lp9946
S'C563838'
p9947
asS'145250'
p9948
(lp9949
S'C564163'
p9950
asS'277300'
p9951
(lp9952
S'C537565'
p9953
asS'603671'
p9954
(lp9955
S'C566345'
p9956
asS'201000'
p9957
(lp9958
S'C563187'
p9959
asS'230740'
p9960
(lp9961
g7954
asS'309801'
p9962
(lp9963
S'C537466'
p9964
asS'118600'
p9965
(lp9966
S'C563162'
p9967
asS'227400'
p9968
(lp9969
S'D005166'
p9970
asS'101200'
p9971
(lp9972
g4872
asS'602629'
p9973
(lp9974
S'C538003'
p9975
asS'145650'
p9976
(lp9977
g3158
asS'154750'
p9978
(lp9979
S'C531742'
p9980
asS'159580'
p9981
(lp9982
S'D015493'
p9983
asS'261550'
p9984
(lp9985
S'C536665'
p9986
asS'222448'
p9987
(lp9988
S'C536390'
p9989
asS'261800'
p9990
(lp9991
S'D010855'
p9992
asS'610460'
p9993
(lp9994
S'C536512'
p9995
asS'603813'
p9996
(lp9997
S'C566331'
p9998
asS'607371'
p9999
(lp10000
S'C537704'
p10001
asS'608940'
p10002
(lp10003
S'C563825'
p10004
asS'605635'
p10005
(lp10006
S'C565312'
p10007
asS'605637'
p10008
(lp10009
S'C565311'
p10010
asS'313900'
p10011
(lp10012
g6519
aS'C564053'
p10013
asS'304040'
p10014
(lp10015
g2600
asS'105120'
p10016
(lp10017
g8027
asS'230900'
p10018
(lp10019
g731
asS'300209'
p10020
(lp10021
S'C564567'
p10022
asS'271150'
p10023
(lp10024
g5394
asS'612356'
p10025
(lp10026
S'C562865'
p10027
asS'249650'
p10028
(lp10029
S'C563085'
p10030
asS'250250'
p10031
(lp10032
S'C535916'
p10033
asS'300200'
p10034
(lp10035
S'C536757'
p10036
aS'C564568'
p10037
aS'C567596'
p10038
asS'257200'
p10039
(lp10040
S'D052536'
p10041
ag8773
asS'158580'
p10042
(lp10043
S'C563562'
p10044
asS'153630'
p10045
(lp10046
S'D008260'
p10047
asS'612089'
p10048
(lp10049
S'C567423'
p10050
asS'181750'
p10051
(lp10052
S'D017675'
p10053
asS'120000'
p10054
(lp10055
S'D001017'
p10056
asS'609313'
p10057
(lp10058
S'C563739'
p10059
asS'200990'
p10060
(lp10061
g8803
asS'214200'
p10062
(lp10063
S'D009472'
p10064
asS'116860'
p10065
(lp10066
S'D020786'
p10067
aS'C566152'
p10068
aS'C566153'
p10069
asS'191650'
p10070
(lp10071
S'D014518'
p10072
asS'121201'
p10073
(lp10074
S'C535466'
p10075
asS'605463'
p10076
(lp10077
S'C565326'
p10078
asS'220400'
p10079
(lp10080
g8981
asS'610799'
p10081
(lp10082
S'C563662'
p10083
asS'204690'
p10084
(lp10085
S'C538241'
p10086
asS'143880'
p10087
(lp10088
S'C562999'
p10089
aS'C562581'
p10090
asS'113600'
p10091
(lp10092
S'D001935'
p10093
asS'606179'
p10094
(lp10095
S'D017824'
p10096
asS'176100'
p10097
(lp10098
g345
aS'D017121'
p10099
asS'602032'
p10100
(lp10101
S'C566592'
p10102
asS'262600'
p10103
(lp10104
S'C563172'
p10105
aS'C580003'
p10106
asS'159420'
p10107
(lp10108
S'C563221'
p10109
asS'130050'
p10110
(lp10111
S'D004535'
p10112
asS'166200'
p10113
(lp10114
S'D010013'
p10115
asS'613206'
p10116
(lp10117
S'C567707'
p10118
asS'148350'
p10119
(lp10120
S'C536152'
p10121
asS'613204'
p10122
(lp10123
S'C567709'
p10124
asS'613205'
p10125
(lp10126
g5620
asS'154400'
p10127
(lp10128
S'C538184'
p10129
asS'608874'
p10130
(lp10131
S'C563843'
p10132
asS'612079'
p10133
(lp10134
S'C567425'
p10135
asS'104500'
p10136
(lp10137
g7101
asS'166700'
p10138
(lp10139
S'C537415'
p10140
aS'C563593'
p10141
asS'612076'
p10142
(lp10143
S'C567426'
p10144
asS'235730'
p10145
(lp10146
S'C536990'
p10147
asS'272700'
p10148
(lp10149
S'C536946'
p10150
asS'614097'
p10151
(lp10152
S'D020642'
p10153
asS'179613'
p10154
(lp10155
S'C535296'
p10156
asS'166710'
p10157
(lp10158
S'D010024'
p10159
aS'D015663'
p10160
asS'271520'
p10161
(lp10162
S'C564799'
p10163
asS'260600'
p10164
(lp10165
S'C536319'
p10166
asS'118400'
p10167
(lp10168
S'D002636'
p10169
asS'247100'
p10170
(lp10171
S'D008065'
p10172
asS'201910'
p10173
(lp10174
S'C535979'
p10175
aS'C565977'
p10176
asS'211180'
p10177
(lp10178
S'C537081'
p10179
asS'190070'
p10180
(lp10181
g1752
asS'163000'
p10182
(lp10183
S'C562760'
p10184
asS'210210'
p10185
(lp10186
S'C535309'
p10187
asS'605145'
p10188
(lp10189
g9967
asS'603116'
p10190
(lp10191
S'C536789'
p10192
asS'610644'
p10193
(lp10194
S'C567165'
p10195
asS'249420'
p10196
(lp10197
S'C537274'
p10198
asS'102900'
p10199
(lp10200
S'C566310'
p10201
asS'605387'
p10202
(lp10203
S'C535343'
p10204
asS'113100'
p10205
(lp10206
S'C537093'
p10207
asS'204500'
p10208
(lp10209
S'C566857'
p10210
aS'D009472'
p10211
asS'235550'
p10212
(lp10213
S'C537257'
p10214
asS'114900'
p10215
(lp10216
g6661
asS'300029'
p10217
(lp10218
S'C564520'
p10219
asS'602722'
p10220
(lp10221
S'C537758'
p10222
aS'C566428'
p10223
asS'141400'
p10224
(lp10225
S'D006053'
p10226
asS'192500'
p10227
(lp10228
g8982
asS'605899'
p10229
(lp10230
S'D020158'
p10231
aS'C562672'
p10232
asS'211980'
p10233
(lp10234
S'D002289'
p10235
aS'C538231'
p10236
aS'D002282'
p10237
asS'604387'
p10238
(lp10239
S'C565780'
p10240
asS'134750'
p10241
(lp10242
S'D005258'
p10243
asS'609965'
p10244
(lp10245
S'C566495'
p10246
asS'613679'
p10247
(lp10248
S'D007020'
p10249
aS'C562724'
p10250
asS'613678'
p10251
(lp10252
g9410
asS'610419'
p10253
(lp10254
S'C563669'
p10255
asS'101800'
p10256
(lp10257
S'C538179'
p10258
asS'252800'
p10259
(lp10260
g276
asS'615925'
p10261
(lp10262
g5168
asS'601399'
p10263
(lp10264
S'C563324'
p10265
asS'601626'
p10266
(lp10267
S'D015470'
p10268
asS'265380'
p10269
(lp10270
S'D010547'
p10271
asS'269600'
p10272
(lp10273
S'D012618'
p10274
asS'208500'
p10275
(lp10276
S'C537571'
p10277
asS'600593'
p10278
(lp10279
S'C563471'
p10280
asS'278780'
p10281
(lp10282
S'C562593'
p10283
aS'C566879'
p10284
asS'260950'
p10285
(lp10286
S'D055113'
p10287
asS'106100'
p10288
(lp10289
S'D056829'
p10290
aS'D054179'
p10291
asS'233100'
p10292
(lp10293
S'D006030'
p10294
asS'175100'
p10295
(lp10296
S'D011125'
p10297
ag4793
ag4794
aS'C538265'
p10298
asS'611376'
p10299
(lp10300
S'C548078'
p10301
asS'218340'
p10302
(lp10303
S'C536959'
p10304
asS'609257'
p10305
(lp10306
S'C563760'
p10307
asS'304050'
p10308
(lp10309
S'D058540'
p10310
asS'613982'
p10311
(lp10312
S'C567041'
p10313
asS'608520'
p10314
(lp10315
S'C563919'
p10316
asS'608526'
p10317
(lp10318
S'C566946'
p10319
asS'134600'
p10320
(lp10321
S'D005198'
p10322
asS'608703'
p10323
(lp10324
S'C537202'
p10325
asS'307300'
p10326
(lp10327
g8991
asS'605967'
p10328
(lp10329
S'C535664'
p10330
asS'265150'
p10331
(lp10332
S'C562832'
p10333
asS'604169'
p10334
(lp10335
S'C565821'
p10336
asS'604168'
p10337
(lp10338
S'C565822'
p10339
asS'611154'
p10340
(lp10341
S'C566999'
p10342
asS'150270'
p10343
(lp10344
S'C562861'
p10345
asS'610131'
p10346
(lp10347
S'C566437'
p10348
asS'600194'
p10349
(lp10350
S'C563978'
p10351
asS'611010'
p10352
(lp10353
S'C567028'
p10354
asS'608093'
p10355
(lp10356
S'C535748'
p10357
asS'608091'
p10358
(lp10359
S'C536294'
p10360
asS'256000'
p10361
(lp10362
g416
ag2061
aS'C564962'
p10363
asS'608097'
p10364
(lp10365
S'C564292'
p10366
asS'608096'
p10367
(lp10368
S'C536956'
p10369
asS'161400'
p10370
(lp10371
S'C563534'
p10372
aS'D002385'
p10373
asS'610256'
p10374
(lp10375
S'C537786'
p10376
asS'612813'
p10377
(lp10378
S'C567558'
p10379
asS'610250'
p10380
(lp10381
S'C565210'
p10382
asS'159900'
p10383
(lp10384
S'C536096'
p10385
asS'610253'
p10386
(lp10387
S'C563043'
p10388
asS'166990'
p10389
(lp10390
S'C563478'
p10391
asS'156240'
p10392
(lp10393
S'C562839'
p10394
asS'226750'
p10395
(lp10396
S'C537213'
p10397
asS'107741'
p10398
(lp10399
S'D006952'
p10400
asS'600668'
p10401
(lp10402
S'C535938'
p10403
asS'600669'
p10404
(lp10405
S'C562694'
p10406
asS'608415'
p10407
(lp10408
S'C564243'
p10409
asS'176920'
p10410
(lp10411
S'D016715'
p10412
asS'278300'
p10413
(lp10414
S'C562584'
p10415
asS'176250'
p10416
(lp10417
S'C536342'
p10418
asS'112500'
p10419
(lp10420
S'C537088'
p10421
asS'216340'
p10422
(lp10423
S'C536719'
p10424
asS'607941'
p10425
(lp10426
S'C538263'
p10427
asS'601718'
p10428
(lp10429
g502
asS'607944'
p10430
(lp10431
S'C564307'
p10432
asS'272430'
p10433
(lp10434
S'C536214'
p10435
aS'C564791'
p10436
asS'232700'
p10437
(lp10438
S'D006013'
p10439
asS'607016'
p10440
(lp10441
g276
asS'147791'
p10442
(lp10443
S'D054868'
p10444
asS'147060'
p10445
(lp10446
S'C567925'
p10447
aS'D007589'
p10448
asS'607015'
p10449
(lp10450
g276
asS'238600'
p10451
(lp10452
S'D008072'
p10453
asS'233650'
p10454
(lp10455
S'C567115'
p10456
asS'151660'
p10457
(lp10458
g5624
asS'611572'
p10459
(lp10460
S'C566913'
p10461
asS'103050'
p10462
(lp10463
S'C538235'
p10464
asS'604765'
p10465
(lp10466
S'C565752'
p10467
asS'610329'
p10468
(lp10469
S'C563683'
p10470
asS'604896'
p10471
(lp10472
g1459
asS'613856'
p10473
(lp10474
S'C564206'
p10475
asS'613855'
p10476
(lp10477
g2934
asS'606943'
p10478
(lp10479
S'C564643'
p10480
asS'610321'
p10481
(lp10482
S'C565201'
p10483
asS'202400'
p10484
(lp10485
S'D000347'
p10486
asS'608380'
p10487
(lp10488
S'C564249'
p10489
asS'613695'
p10490
(lp10491
S'C566766'
p10492
asS'613694'
p10493
(lp10494
S'C566296'
p10495
asS'613697'
p10496
(lp10497
S'C566856'
p10498
asS'308700'
p10499
(lp10500
g4814
asS'172800'
p10501
(lp10502
S'D016116'
p10503
asS'613693'
p10504
(lp10505
S'C566333'
p10506
asS'614116'
p10507
(lp10508
S'C580162'
p10509
asS'263700'
p10510
(lp10511
S'D017092'
p10512
asS'302802'
p10513
(lp10514
S'C535303'
p10515
asS'212066'
p10516
(lp10517
S'C535752'
p10518
asS'242600'
p10519
(lp10520
g921
asS'268000'
p10521
(lp10522
g1509
asS'185300'
p10523
(lp10524
g235
asS'182900'
p10525
(lp10526
S'C567159'
p10527
asS'606155'
p10528
(lp10529
S'C565258'
p10530
asS'229300'
p10531
(lp10532
S'C565561'
p10533
ag9806
asS'151590'
p10534
(lp10535
S'D018459'
p10536
asS'160720'
p10537
(lp10538
g1365
asS'126950'
p10539
(lp10540
S'C535725'
p10541
asS'600165'
p10542
(lp10543
S'C563983'
p10544
asS'275200'
p10545
(lp10546
S'C576976'
p10547
asS'308940'
p10548
(lp10549
S'C537113'
p10550
asS'193100'
p10551
(lp10552
S'C562791'
p10553
asS'102700'
p10554
(lp10555
S'C531816'
p10556
asS'606835'
p10557
(lp10558
S'C564656'
p10559
asS'186570'
p10560
(lp10561
g189
asS'612674'
p10562
(lp10563
S'C567203'
p10564
asS'108145'
p10565
(lp10566
S'C537737'
p10567
asS'611126'
p10568
(lp10569
S'C567006'
p10570
asS'214900'
p10571
(lp10572
S'C535330'
p10573
asS'129150'
p10574
(lp10575
S'C565071'
p10576
asS'184095'
p10577
(lp10578
g9410
asS'607831'
p10579
(lp10580
g6236
asS'607834'
p10581
(lp10582
S'D001007'
p10583
asS'266500'
p10584
(lp10585
S'D012035'
p10586
aS'C567602'
p10587
asS'600287'
p10588
(lp10589
g3356
asS'156000'
p10590
(lp10591
S'D008575'
p10592
asS'300710'
p10593
(lp10594
S'C567473'
p10595
asS'222900'
p10596
(lp10597
S'C538139'
p10598
asS'608474'
p10599
(lp10600
S'C563922'
p10601
asS'126453'
p10602
(lp10603
g4878
asS'606612'
p10604
(lp10605
S'C564691'
p10606
asS'241600'
p10607
(lp10608
S'C565476'
p10609
asS'607236'
p10610
(lp10611
S'C564603'
p10612
asS'128200'
p10613
(lp10614
S'C537180'
p10615
asS'267730'
p10616
(lp10617
S'D008228'
p10618
asS'228960'
p10619
(lp10620
S'C537060'
p10621
asS'607239'
p10622
(lp10623
S'C564602'
p10624
asS'155100'
p10625
(lp10626
g9243
asS'187350'
p10627
(lp10628
S'C562941'
p10629
asS'123000'
p10630
(lp10631
S'C565145'
p10632
asS'258501'
p10633
(lp10634
S'C535311'
p10635
asS'181430'
p10636
(lp10637
g5701
asS'256810'
p10638
(lp10639
S'C538344'
p10640
asS'607304'
p10641
(lp10642
S'C564596'
p10643
asS'605462'
p10644
(lp10645
S'C537656'
p10646
asS'300505'
p10647
(lp10648
S'C564501'
p10649
asS'206920'
p10650
(lp10651
S'C537769'
p10652
asS'145400'
p10653
(lp10654
S'D006972'
p10655
asS'174300'
p10656
(lp10657
S'C557819'
p10658
asS'167200'
p10659
(lp10660
g5605
asS'612528'
p10661
(lp10662
S'C567280'
p10663
asS'117900'
p10664
(lp10665
S'D057070'
p10666
asS'613071'
p10667
(lp10668
S'C567772'
p10669
asS'613073'
p10670
(lp10671
S'C567771'
p10672
asS'613075'
p10673
(lp10674
S'C567770'
p10675
asS'245200'
p10676
(lp10677
S'D007965'
p10678
asS'613077'
p10679
(lp10680
S'C567768'
p10681
asS'613076'
p10682
(lp10683
S'C567769'
p10684
asS'613079'
p10685
(lp10686
S'C567543'
p10687
asS'605704'
p10688
(lp10689
g6770
asS'155720'
p10690
(lp10691
S'C536494'
p10692
asS'606391'
p10693
(lp10694
S'C562772'
p10695
asS'612241'
p10696
(lp10697
S'C567388'
p10698
asS'250400'
p10699
(lp10700
S'C537353'
p10701
asS'612242'
p10702
(lp10703
g1789
aS'C567385'
p10704
asS'612245'
p10705
(lp10706
S'C567383'
p10707
asS'612244'
p10708
(lp10709
S'C567384'
p10710
asS'612247'
p10711
(lp10712
S'C567382'
p10713
asS'230750'
p10714
(lp10715
S'D020139'
p10716
asS'259710'
p10717
(lp10718
S'C536059'
p10719
asS'609255'
p10720
(lp10721
S'C563762'
p10722
asS'606054'
p10723
(lp10724
S'D056693'
p10725
asS'606056'
p10726
(lp10727
S'C565264'
p10728
asS'612527'
p10729
(lp10730
S'C567281'
p10731
asS'613174'
p10732
(lp10733
S'C567717'
p10734
asS'180500'
p10735
(lp10736
S'C535679'
p10737
asS'162280'
p10738
(lp10739
g710
asS'213000'
p10740
(lp10741
S'C562568'
p10742
asS'607308'
p10743
(lp10744
S'C564595'
p10745
asS'215500'
p10746
(lp10747
S'C535358'
p10748
asS'159595'
p10749
(lp10750
S'C563551'
p10751
asS'177200'
p10752
(lp10753
S'D056929'
p10754
asS'266265'
p10755
(lp10756
S'C535755'
p10757
asS'150400'
p10758
(lp10759
S'C563634'
p10760
asS'260540'
p10761
(lp10762
S'C537240'
p10763
asS'612372'
p10764
(lp10765
S'C567531'
p10766
asS'612278'
p10767
(lp10768
S'C567372'
p10769
asS'120100'
p10770
(lp10771
g3584
asS'601518'
p10772
(lp10773
S'C537243'
p10774
asS'301000'
p10775
(lp10776
g7507
asS'187260'
p10777
(lp10778
S'C562908'
p10779
asS'148210'
p10780
(lp10781
S'C536168'
p10782
asS'300238'
p10783
(lp10784
S'C537135'
p10785
asS'615465'
p10786
(lp10787
S'C564484'
p10788
asS'227500'
p10789
(lp10790
S'D005168'
p10791
asS'253220'
p10792
(lp10793
S'D016538'
p10794
asS'118100'
p10795
(lp10796
S'C536887'
p10797
asS'608751'
p10798
(lp10799
S'C563866'
p10800
asS'612379'
p10801
(lp10802
S'C567328'
p10803
asS'181405'
p10804
(lp10805
g2475
asS'201450'
p10806
(lp10807
S'C536038'
p10808
asS'276880'
p10809
(lp10810
S'C536479'
p10811
asS'300433'
p10812
(lp10813
S'C564515'
p10814
asS'611097'
p10815
(lp10816
S'C567012'
p10817
asS'215470'
p10818
(lp10819
S'C565850'
p10820
asS'277200'
p10821
(lp10822
S'C535682'
p10823
asS'603714'
p10824
(lp10825
g9475
asS'603711'
p10826
(lp10827
g9602
asS'201100'
p10828
(lp10829
S'C538178'
p10830
asS'257980'
p10831
(lp10832
S'C537742'
p10833
asS'603932'
p10834
(lp10835
S'C535531'
p10836
asS'200500'
p10837
(lp10838
S'C536014'
p10839
asS'208085'
p10840
(lp10841
S'C535382'
p10842
asS'229045'
p10843
(lp10844
S'D017573'
p10845
asS'605714'
p10846
(lp10847
S'C567787'
p10848
aS'C537944'
p10849
asS'301310'
p10850
(lp10851
S'C536358'
p10852
asS'160500'
p10853
(lp10854
g5244
asS'241500'
p10855
(lp10856
S'C562646'
p10857
asS'138850'
p10858
(lp10859
S'C537919'
p10860
asS'308800'
p10861
(lp10862
S'C536159'
p10863
asS'314100'
p10864
(lp10865
g1117
asS'249700'
p10866
(lp10867
g5869
asS'168470'
p10868
(lp10869
S'C562390'
p10870
asS'609727'
p10871
(lp10872
S'C536863'
p10873
asS'142946'
p10874
(lp10875
S'C564180'
p10876
asS'142945'
p10877
(lp10878
S'C564181'
p10879
asS'114450'
p10880
(lp10881
S'C566179'
p10882
asS'300301'
p10883
(lp10884
S'C564538'
p10885
asS'613211'
p10886
(lp10887
S'C567706'
p10888
asS'614337'
p10889
(lp10890
S'C563971'
p10891
asS'248600'
p10892
(lp10893
S'D008375'
p10894
aS'C535710'
p10895
aS'C535712'
p10896
asS'251200'
p10897
(lp10898
S'C565384'
p10899
asS'613217'
p10900
(lp10901
S'C567703'
p10902
asS'613216'
p10903
(lp10904
S'C567704'
p10905
asS'608840'
p10906
(lp10907
S'C563844'
p10908
asS'277440'
p10909
(lp10910
S'C562794'
p10911
aS'D053098'
p10912
aS'C562689'
p10913
asS'104510'
p10914
(lp10915
S'C566293'
p10916
asS'108010'
p10917
(lp10918
S'D002538'
p10919
asS'607683'
p10920
(lp10921
S'C564348'
p10922
asS'250620'
p10923
(lp10924
S'C562803'
p10925
asS'140300'
p10926
(lp10927
S'D050031'
p10928
aS'C562768'
p10929
asS'602535'
p10930
(lp10931
S'C536026'
p10932
asS'120290'
p10933
(lp10934
g6569
asS'206500'
p10935
(lp10936
S'D000757'
p10937
asS'609734'
p10938
(lp10939
S'C565726'
p10940
asS'139393'
p10941
(lp10942
S'D020275'
p10943
aS'D020277'
p10944
asS'614089'
p10945
(lp10946
S'C563540'
p10947
asS'134830'
p10948
(lp10949
g10486
asS'203740'
p10950
(lp10951
S'C536582'
p10952
asS'605080'
p10953
(lp10954
g500
asS'605728'
p10955
(lp10956
S'C565301'
p10957
asS'115665'
p10958
(lp10959
S'C538285'
p10960
asS'221900'
p10961
(lp10962
S'C565633'
p10963
aS'C566966'
p10964
asS'147920'
p10965
(lp10966
S'C537705'
p10967
asS'604391'
p10968
(lp10969
S'C565779'
p10970
asS'540000'
p10971
(lp10972
g9542
asS'255120'
p10973
(lp10974
S'C535588'
p10975
asS'210200'
p10976
(lp10977
S'C535308'
p10978
asS'605407'
p10979
(lp10980
g5330
asS'117300'
p10981
(lp10982
S'C538209'
p10983
asS'604863'
p10984
(lp10985
S'C567636'
p10986
asS'176000'
p10987
(lp10988
S'D017118'
p10989
aS'C566769'
p10990
asS'611093'
p10991
(lp10992
S'C567016'
p10993
asS'600919'
p10994
(lp10995
g2524
aS'C563428'
p10996
asS'602759'
p10997
(lp10998
S'C566426'
p10999
asS'166000'
p11000
(lp11001
S'D004687'
p11002
asS'300017'
p11003
(lp11004
g3795
asS'251110'
p11005
(lp11006
S'C537361'
p11007
asS'604392'
p11008
(lp11009
S'C565778'
p11010
asS'190440'
p11011
(lp11012
S'C562951'
p11013
asS'611638'
p11014
(lp11015
S'C566899'
p11016
asS'125350'
p11017
(lp11018
S'C565114'
p11019
asS'128100'
p11020
(lp11021
S'C538005'
p11022
asS'128101'
p11023
(lp11024
S'C538004'
p11025
asS'203290'
p11026
(lp11027
S'C537189'
p11028
asS'604377'
p11029
(lp11030
S'C565784'
p11031
asS'108600'
p11032
(lp11033
S'C566993'
p11034
asS'234820'
p11035
(lp11036
S'C562740'
p11037
asS'135900'
p11038
(lp11039
S'C536436'
p11040
asS'302060'
p11041
(lp11042
S'D056889'
p11043
asS'609428'
p11044
(lp11045
S'C536925'
p11046
asS'182000'
p11047
(lp11048
S'D017492'
p11049
asS'612400'
p11050
(lp11051
S'D015207'
p11052
asS'227200'
p11053
(lp11054
S'C535764'
p11055
asS'208530'
p11056
(lp11057
g2086
asS'601653'
p11058
(lp11059
g8555
asS'176640'
p11060
(lp11061
g6884
ag2465
ag9648
ag4590
ag1036
asS'610745'
p11062
(lp11063
g402
asS'601656'
p11064
(lp11065
g3460
asS'610743'
p11066
(lp11067
S'C565188'
p11068
asS'164400'
p11069
(lp11070
g1615
asS'609258'
p11071
(lp11072
S'C563759'
p11073
asS'246450'
p11074
(lp11075
S'C538324'
p11076
asS'153650'
p11077
(lp11078
g9243
asS'601097'
p11079
(lp11080
g7722
ag4055
asS'601090'
p11081
(lp11082
g7819
ag7578
ag6899
ag6900
asS'601093'
p11083
(lp11084
g3080
asS'236700'
p11085
(lp11086
S'C538159'
p11087
asS'153200'
p11088
(lp11089
S'C562467'
p11090
asS'601098'
p11091
(lp11092
S'C537984'
p11093
asS'163700'
p11094
(lp11095
S'C562557'
p11096
asS'269160'
p11097
(lp11098
g9475
asS'210370'
p11099
(lp11100
S'C535440'
p11101
asS'108770'
p11102
(lp11103
S'C563984'
p11104
asS'601472'
p11105
(lp11106
S'C537993'
p11107
asS'608265'
p11108
(lp11109
S'C564265'
p11110
asS'608266'
p11111
(lp11112
g9741
asS'230350'
p11113
(lp11114
S'D005693'
p11115
asS'604116'
p11116
(lp11117
g501
asS'147250'
p11118
(lp11119
g9474
asS'278000'
p11120
(lp11121
S'D015223'
p11122
asS'609649'
p11123
(lp11124
S'C566458'
p11125
asS'610248'
p11126
(lp11127
S'C565211'
p11128
asS'608068'
p11129
(lp11130
S'D016463'
p11131
asS'219090'
p11132
(lp11133
S'D047748'
p11134
aS'D049913'
p11135
asS'265800'
p11136
(lp11137
S'D058631'
p11138
asS'604286'
p11139
(lp11140
S'C535902'
p11141
asS'610246'
p11142
(lp11143
S'C537205'
p11144
asS'610245'
p11145
(lp11146
S'C537201'
p11147
asS'609646'
p11148
(lp11149
S'C566460'
p11150
asS'178300'
p11151
(lp11152
S'C566737'
p11153
asS'600674'
p11154
(lp11155
S'C563457'
p11156
asS'106600'
p11157
(lp11158
S'D000848'
p11159
asS'175200'
p11160
(lp11161
S'D010580'
p11162
asS'600112'
p11163
(lp11164
g2321
asS'105580'
p11165
(lp11166
S'C563020'
p11167
asS'252270'
p11168
(lp11169
S'C565370'
p11170
asS'252900'
p11171
(lp11172
g562
asS'176261'
p11173
(lp11174
g10492
asS'601277'
p11175
(lp11176
S'C537264'
p11177
asS'601920'
p11178
(lp11179
S'C566604'
p11180
asS'269700'
p11181
(lp11182
g544
asS'604571'
p11183
(lp11184
S'C565759'
p11185
asS'211400'
p11186
(lp11187
S'C567618'
p11188
asS'146255'
p11189
(lp11190
S'C537907'
p11191
asS'137245'
p11192
(lp11193
S'C535648'
p11194
asS'182920'
p11195
(lp11196
S'C000598645'
p11197
asS'604757'
p11198
(lp11199
S'C565753'
p11200
asS'108800'
p11201
(lp11202
S'C566239'
p11203
aS'C536112'
p11204
aS'C566240'
p11205
asS'600059'
p11206
(lp11207
S'C564008'
p11208
asS'311510'
p11209
(lp11210
S'C537179'
p11211
asS'600057'
p11212
(lp11213
S'D001746'
p11214
aS'C564009'
p11215
asS'182860'
p11216
(lp11217
g4732
ag6465
asS'601390'
p11218
(lp11219
S'C536530'
p11220
asS'311150'
p11221
(lp11222
S'C537568'
p11223
asS'231530'
p11224
(lp11225
S'C535310'
p11226
asS'607454'
p11227
(lp11228
S'C537200'
p11229
asS'613000'
p11230
(lp11231
S'C538682'
p11232
asS'109720'
p11233
(lp11234
S'D008105'
p11235
asS'610333'
p11236
(lp11237
S'C563681'
p11238
asS'611209'
p11239
(lp11240
S'C535756'
p11241
asS'600332'
p11242
(lp11243
S'C535686'
p11244
asS'608600'
p11245
(lp11246
S'D052496'
p11247
asS'168400'
p11248
(lp11249
g9409
asS'312080'
p11250
(lp11251
S'D020371'
p11252
asS'607483'
p11253
(lp11254
S'C537658'
p11255
asS'607482'
p11256
(lp11257
S'C564390'
p11258
asS'607485'
p11259
(lp11260
S'D018888'
p11261
asS'607450'
p11262
(lp11263
S'C564400'
p11264
asS'607487'
p11265
(lp11266
S'C564388'
p11267
asS'270150'
p11268
(lp11269
S'D012859'
p11270
asS'217800'
p11271
(lp11272
S'C537834'
p11273
ag6835
asS'607488'
p11274
(lp11275
S'C538002'
p11276
asS'256100'
p11277
(lp11278
S'C537699'
p11279
asS'600458'
p11280
(lp11281
S'D062788'
p11282
asS'300148'
p11283
(lp11284
S'C537451'
p11285
asS'261750'
p11286
(lp11287
S'C563008'
p11288
asS'605935'
p11289
(lp11290
S'C565273'
p11291
asS'613006'
p11292
(lp11293
S'C567818'
p11294
asS'212050'
p11295
(lp11296
S'C537979'
p11297
asS'164760'
p11298
(lp11299
g1432
ag1435
asS'164761'
p11300
(lp11301
g1669
ag659
ag1045
asS'233710'
p11302
(lp11303
S'C565531'
p11304
asS'245348'
p11305
(lp11306
S'C565448'
p11307
asS'245349'
p11308
(lp11309
S'C565447'
p11310
asS'147670'
p11311
(lp11312
g6346
aS'D007333'
p11313
ag3798
asS'109730'
p11314
(lp11315
S'C563178'
p11316
aS'C562942'
p11317
aS'C562388'
p11318
asS'606995'
p11319
(lp11320
S'C564637'
p11321
asS'606996'
p11322
(lp11323
S'C537581'
p11324
asS'210710'
p11325
(lp11326
S'C537577'
p11327
asS'245340'
p11328
(lp11329
S'C565449'
p11330
asS'606451'
p11331
(lp11332
S'C564706'
p11333
asS'606445'
p11334
(lp11335
S'C564707'
p11336
asS'263570'
p11337
(lp11338
S'C564878'
p11339
asS'608115'
p11340
(lp11341
S'D016471'
p11342
asS'604625'
p11343
(lp11344
S'C567036'
p11345
asS'300143'
p11346
(lp11347
g2802
asS'607131'
p11348
(lp11349
S'C564621'
p11350
asS'607132'
p11351
(lp11352
S'C564620'
p11353
asS'209900'
p11354
(lp11355
S'C537909'
p11356
asS'607136'
p11357
(lp11358
S'C564616'
p11359
asS'271530'
p11360
(lp11361
S'C537099'
p11362
asS'606843'
p11363
(lp11364
g3234
asS'130010'
p11365
(lp11366
S'C536195'
p11367
asS'608283'
p11368
(lp11369
g9270
asS'580000'
p11370
(lp11371
g531
asS'605388'
p11372
(lp11373
S'C562856'
p11374
asS'151050'
p11375
(lp11376
S'C537115'
p11377
asS'186580'
p11378
(lp11379
S'C538157'
p11380
asS'605389'
p11381
(lp11382
S'C537160'
p11383
asS'230650'
p11384
(lp11385
g2931
asS'263400'
p11386
(lp11387
g9512
asS'607829'
p11388
(lp11389
S'C564326'
p11390
asS'242500'
p11391
(lp11392
S'C538424'
p11393
aS'D017490'
p11394
asS'615118'
p11395
(lp11396
g1857
asS'235555'
p11397
(lp11398
S'C535443'
p11399
asS'607823'
p11400
(lp11401
S'C564327'
p11402
asS'607822'
p11403
(lp11404
S'C536598'
p11405
aS'C564330'
p11406
aS'C564329'
p11407
asS'607821'
p11408
(lp11409
S'C564331'
p11410
asS'609253'
p11411
(lp11412
S'C563764'
p11413
asS'606668'
p11414
(lp11415
S'C564682'
p11416
asS'241080'
p11417
(lp11418
S'C536742'
p11419
asS'144250'
p11420
(lp11421
S'D006950'
p11422
asS'143200'
p11423
(lp11424
S'C536075'
p11425
asS'601894'
p11426
(lp11427
S'C536826'
p11428
asS'131850'
p11429
(lp11430
S'C535494'
p11431
asS'114480'
p11432
(lp11433
S'D001943'
p11434
aS'C562840'
p11435
aS'C566178'
p11436
asS'110100'
p11437
(lp11438
g7606
aS'C566222'
p11439
asS'606664'
p11440
(lp11441
g6762
asS'607225'
p11442
(lp11443
S'C537217'
p11444
asS'254900'
p11445
(lp11446
S'D020191'
p11447
asS'193230'
p11448
(lp11449
S'C536677'
p11450
asS'607221'
p11451
(lp11452
S'C564605'
p11453
asS'615232'
p11454
(lp11455
g7241
asS'193235'
p11456
(lp11457
S'D018630'
p11458
asS'274700'
p11459
(lp11460
S'C562769'
p11461
asS'300471'
p11462
(lp11463
S'C564510'
p11464
asS'612759'
p11465
(lp11466
S'C562460'
p11467
asS'114240'
p11468
(lp11469
S'C535895'
p11470
asS'300652'
p11471
(lp11472
S'C536366'
p11473
asS'105400'
p11474
(lp11475
S'C531617'
p11476
asS'600259'
p11477
(lp11478
g10891
asS'609893'
p11479
(lp11480
S'C567935'
p11481
asS'307150'
p11482
(lp11483
S'C538388'
p11484
asS'105800'
p11485
(lp11486
S'C566284'
p11487
asS'256800'
p11488
(lp11489
g6784
asS'190900'
p11490
(lp11491
S'D003117'
p11492
asS'300659'
p11493
(lp11494
S'C567066'
p11495
asS'145410'
p11496
(lp11497
S'C538387'
p11498
asS'129500'
p11499
(lp11500
S'D004476'
p11501
asS'228550'
p11502
(lp11503
S'C562978'
p11504
asS'606282'
p11505
(lp11506
S'C565239'
p11507
asS'159700'
p11508
(lp11509
S'C535287'
p11510
asS'301845'
p11511
(lp11512
S'C537663'
p11513
asS'180350'
p11514
(lp11515
S'D012218'
p11516
asS'127000'
p11517
(lp11518
S'C537020'
p11519
asS'611944'
p11520
(lp11521
S'C567452'
p11522
asS'313850'
p11523
(lp11524
S'D058502'
p11525
asS'606069'
p11526
(lp11527
S'C537249'
p11528
asS'213300'
p11529
(lp11530
S'C536293'
p11531
asS'300539'
p11532
(lp11533
S'C564491'
p11534
asS'606852'
p11535
(lp11536
S'C564653'
p11537
asS'131100'
p11538
(lp11539
S'D018761'
p11540
asS'612279'
p11541
(lp11542
S'C567371'
p11543
asS'188740'
p11544
(lp11545
g1318
asS'612274'
p11546
(lp11547
S'C567373'
p11548
asS'259700'
p11549
(lp11550
S'C564915'
p11551
asS'300537'
p11552
(lp11553
S'C564492'
p11554
asS'612271'
p11555
(lp11556
S'C567374'
p11557
asS'606268'
p11558
(lp11559
g8503
ag10760
asS'300534'
p11560
(lp11561
S'C564494'
p11562
asS'612240'
p11563
(lp11564
S'C567389'
p11565
asS'181350'
p11566
(lp11567
g5622
aS'C567633'
p11568
asS'100600'
p11569
(lp11570
S'D000052'
p11571
asS'609122'
p11572
(lp11573
S'C563792'
p11574
asS'612474'
p11575
(lp11576
S'C567291'
p11577
asS'313500'
p11578
(lp11579
S'C567060'
p11580
asS'605809'
p11581
(lp11582
S'C565289'
p11583
asS'614613'
p11584
(lp11585
g10258
asS'180380'
p11586
(lp11587
g9002
asS'300511'
p11588
(lp11589
S'C564498'
p11590
asS'224410'
p11591
(lp11592
S'C537998'
p11593
asS'150230'
p11594
(lp11595
S'D015826'
p11596
asS'603896'
p11597
(lp11598
S'D056784'
p11599
ag3033
asS'155600'
p11600
(lp11601
S'C562393'
p11602
aS'D004416'
p11603
asS'611804'
p11604
(lp11605
S'C567520'
p11606
asS'608907'
p11607
(lp11608
S'C563834'
p11609
asS'208050'
p11610
(lp11611
S'C565942'
p11612
asS'305000'
p11613
(lp11614
S'D019871'
p11615
aS'C536068'
p11616
asS'612998'
p11617
(lp11618
S'C567831'
p11619
asS'314250'
p11620
(lp11621
S'C564048'
p11622
asS'300221'
p11623
(lp11624
S'C538326'
p11625
asS'300220'
p11626
(lp11627
S'C564560'
p11628
asS'304020'
p11629
(lp11630
S'C564438'
p11631
asS'311360'
p11632
(lp11633
S'D016649'
p11634
asS'261000'
p11635
(lp11636
S'C563242'
p11637
asS'212540'
p11638
(lp11639
S'C537965'
p11640
asS'300228'
p11641
(lp11642
S'C564559'
p11643
asS'601877'
p11644
(lp11645
S'C566610'
p11646
asS'205100'
p11647
(lp11648
S'C565957'
p11649
asS'303800'
p11650
(lp11651
g982
asS'257220'
p11652
(lp11653
S'D052556'
p11654
asS'609432'
p11655
(lp11656
S'C563721'
p11657
asS'608542'
p11658
(lp11659
S'C536360'
p11660
asS'613194'
p11661
(lp11662
S'C567712'
p11663
asS'613195'
p11664
(lp11665
S'C567710'
p11666
asS'240600'
p11667
(lp11668
S'C565485'
p11669
asS'221770'
p11670
(lp11671
S'C536329'
p11672
asS'224300'
p11673
(lp11674
S'C562973'
p11675
asS'177650'
p11676
(lp11677
S'D017889'
p11678
asS'212895'
p11679
(lp11680
S'C535633'
p11681
asS'603720'
p11682
(lp11683
S'C566339'
p11684
asS'124015'
p11685
(lp11686
g2985
asS'612580'
p11687
(lp11688
S'C567241'
p11689
asS'612581'
p11690
(lp11691
S'C567240'
p11692
asS'612586'
p11693
(lp11694
S'C567238'
p11695
asS'612587'
p11696
(lp11697
S'C567237'
p11698
asS'603234'
p11699
(lp11700
g9528
asS'600430'
p11701
(lp11702
S'C538317'
p11703
asS'603902'
p11704
(lp11705
S'C565834'
p11706
asS'603903'
p11707
(lp11708
g3982
asS'611087'
p11709
(lp11710
S'C567020'
p11711
asS'243000'
p11712
(lp11713
S'C565467'
p11714
asS'603909'
p11715
(lp11716
S'C565833'
p11717
asS'221820'
p11718
(lp11719
S'C580150'
p11720
asS'308990'
p11721
(lp11722
S'C545036'
p11723
asS'613224'
p11724
(lp11725
g5217
asS'613225'
p11726
(lp11727
S'C567691'
p11728
asS'130070'
p11729
(lp11730
S'C536201'
p11731
asS'610539'
p11732
(lp11733
g9525
asS'304150'
p11734
(lp11735
S'C537860'
p11736
asS'258150'
p11737
(lp11738
S'C562902'
p11739
asS'148370'
p11740
(lp11741
S'C536155'
p11742
asS'610535'
p11743
(lp11744
S'C566436'
p11745
asS'610536'
p11746
(lp11747
S'C537405'
p11748
asS'613229'
p11749
(lp11750
S'D014256'
p11751
asS'610532'
p11752
(lp11753
S'C567166'
p11754
asS'231090'
p11755
(lp11756
S'D006828'
p11757
aS'D031901'
p11758
asS'231095'
p11759
(lp11760
S'C565551'
p11761
asS'606763'
p11762
(lp11763
S'C535277'
p11764
asS'119500'
p11765
(lp11766
g8024
asS'277450'
p11767
(lp11768
S'C564741'
p11769
asS'600320'
p11770
(lp11771
S'C563958'
p11772
asS'603830'
p11773
(lp11774
S'C565840'
p11775
asS'612293'
p11776
(lp11777
S'C567356'
p11778
asS'612290'
p11779
(lp11780
S'C567359'
p11781
asS'612291'
p11782
(lp11783
S'C567358'
p11784
asS'613310'
p11785
(lp11786
S'C567648'
p11787
asS'124900'
p11788
(lp11789
S'C565121'
p11790
asS'530000'
p11791
(lp11792
S'D007625'
p11793
aS'C540770'
p11794
asS'101000'
p11795
(lp11796
S'D016518'
p11797
asS'602522'
p11798
(lp11799
S'C566530'
p11800
aS'C567544'
p11801
asS'270450'
p11802
(lp11803
S'C564816'
p11804
asS'605804'
p11805
(lp11806
S'C565292'
p11807
asS'151900'
p11808
(lp11809
S'D008067'
p11810
asS'200150'
p11811
(lp11812
S'D054546'
p11813
asS'610967'
p11814
(lp11815
S'C567042'
p11816
asS'609256'
p11817
(lp11818
S'C563761'
p11819
asS'125500'
p11820
(lp11821
g7743
asS'609706'
p11822
(lp11823
S'C566453'
p11824
asS'119530'
p11825
(lp11826
S'C566121'
p11827
asS'611590'
p11828
(lp11829
g1801
aS'C566911'
p11830
asS'203750'
p11831
(lp11832
S'C535434'
p11833
asS'270100'
p11834
(lp11835
S'C538116'
p11836
aS'D012857'
p11837
asS'105650'
p11838
(lp11839
S'C567302'
p11840
asS'208230'
p11841
(lp11842
S'C535387'
p11843
asS'249400'
p11844
(lp11845
S'C537387'
p11846
asS'260660'
p11847
(lp11848
S'C535550'
p11849
asS'611755'
p11850
(lp11851
g3340
asS'304100'
p11852
(lp11853
g2858
asS'610629'
p11854
(lp11855
S'C536355'
p11856
asS'192605'
p11857
(lp11858
S'C536334'
p11859
asS'274800'
p11860
(lp11861
S'C562770'
p11862
asS'607694'
p11863
(lp11864
S'C567313'
p11865
asS'251100'
p11866
(lp11867
S'C537360'
p11868
asS'613318'
p11869
(lp11870
S'C567646'
p11871
asS'610093'
p11872
(lp11873
g9893
asS'138140'
p11874
(lp11875
g9916
ag3117
asS'255110'
p11876
(lp11877
g9629
asS'182260'
p11878
(lp11879
S'D060048'
p11880
asS'140400'
p11881
(lp11882
S'C564202'
p11883
asS'300009'
p11884
(lp11885
S'C538212'
p11886
asS'300008'
p11887
(lp11888
g11723
asS'162000'
p11889
(lp11890
S'C537696'
p11891
asS'300005'
p11892
(lp11893
g3649
ag5115
asS'300004'
p11894
(lp11895
S'C563110'
p11896
asS'605362'
p11897
(lp11898
S'C565337'
p11899
asS'605361'
p11900
(lp11901
S'C537196'
p11902
asS'246650'
p11903
(lp11904
S'C535904'
p11905
asS'604369'
p11906
(lp11907
g6854
asS'608805'
p11908
(lp11909
S'D005271'
p11910
asS'604365'
p11911
(lp11912
g1368
ag3066
asS'604364'
p11913
(lp11914
S'C565785'
p11915
asS'604367'
p11916
(lp11917
S'D052496'
p11918
asS'604360'
p11919
(lp11920
S'C537483'
p11921
asS'300578'
p11922
(lp11923
S'C564481'
p11924
asS'254600'
p11925
(lp11926
S'C562864'
p11927
asS'602361'
p11928
(lp11929
S'C537291'
p11930
asS'121400'
p11931
(lp11932
S'C565158'
p11933
asS'243200'
p11934
(lp11935
S'D011559'
p11936
asS'186000'
p11937
(lp11938
S'C566094'
p11939
aS'C566095'
p11940
asS'612301'
p11941
(lp11942
S'C567354'
p11943
asS'610755'
p11944
(lp11945
S'C567059'
p11946
asS'278250'
p11947
(lp11948
S'C536750'
p11949
asS'610756'
p11950
(lp11951
S'C565185'
p11952
asS'603472'
p11953
(lp11954
S'C537395'
p11955
asS'176305'
p11956
(lp11957
S'C538278'
p11958
asS'187500'
p11959
(lp11960
g3460
asS'610759'
p11961
(lp11962
S'D003635'
p11963
asS'610758'
p11964
(lp11965
S'C565184'
p11966
asS'601086'
p11967
(lp11968
S'C563391'
p11969
asS'613027'
p11970
(lp11971
S'C567809'
p11972
asS'613096'
p11973
(lp11974
S'C567930'
p11975
asS'601545'
p11976
(lp11977
g5405
asS'601088'
p11978
(lp11979
S'C563390'
p11980
asS'613095'
p11981
(lp11982
S'D016891'
p11983
asS'265120'
p11984
(lp11985
S'C566882'
p11986
asS'610612'
p11987
(lp11988
S'C565697'
p11989
asS'613094'
p11990
(lp11991
g4183
asS'239300'
p11992
(lp11993
S'C565495'
p11994
asS'612877'
p11995
(lp11996
S'C567877'
p11997
asS'612874'
p11998
(lp11999
S'C567878'
p12000
asS'151200'
p12001
(lp12002
S'C537118'
p12003
asS'280000'
p12004
(lp12005
S'C536729'
p12006
asS'613093'
p12007
(lp12008
S'C567758'
p12009
aS'C567759'
p12010
asS'601462'
p12011
(lp12012
S'D020294'
p12013
aS'C536091'
p12014
asS'609678'
p12015
(lp12016
g11751
asS'112410'
p12017
(lp12018
S'C537095'
p12019
asS'173335'
p12020
(lp12021
g7498
asS'175780'
p12022
(lp12023
S'D065708'
p12024
asS'611377'
p12025
(lp12026
g189
asS'613985'
p12027
(lp12028
S'D017086'
p12029
asS'615878'
p12030
(lp12031
S'C535442'
p12032
asS'306000'
p12033
(lp12034
S'C567579'
p12035
asS'604290'
p12036
(lp12037
g5441
ag5442
asS'604292'
p12038
(lp12039
S'C565799'
p12040
asS'611378'
p12041
(lp12042
S'C566958'
p12043
asS'607921'
p12044
(lp12045
S'C564310'
p12046
asS'614052'
p12047
(lp12048
S'C567528'
p12049
asS'138945'
p12050
(lp12051
g11261
asS'611571'
p12052
(lp12053
S'C566914'
p12054
asS'608423'
p12055
(lp12056
S'C564242'
p12057
asS'611907'
p12058
(lp12059
S'C567459'
p12060
asS'268150'
p12061
(lp12062
S'C564833'
p12063
aS'C562717'
p12064
asS'608471'
p12065
(lp12066
S'C563923'
p12067
asS'608470'
p12068
(lp12069
S'C535476'
p12070
asS'236000'
p12071
(lp12072
S'D006689'
p12073
asS'608687'
p12074
(lp12075
S'C537199'
p12076
asS'604563'
p12077
(lp12078
S'C535421'
p12079
aS'C565761'
p12080
aS'C535422'
p12081
asS'612109'
p12082
(lp12083
S'C567416'
p12084
asS'133171'
p12085
(lp12086
S'D004915'
p12087
asS'176270'
p12088
(lp12089
S'D011218'
p12090
asS'275355'
p12091
(lp12092
S'C535575'
p12093
asS'133200'
p12094
(lp12095
S'D056266'
p12096
aS'C536154'
p12097
asS'615182'
p12098
(lp12099
g6709
asS'615988'
p12100
(lp12101
S'C565920'
p12102
asS'107320'
p12103
(lp12104
S'C531622'
p12105
asS'607035'
p12106
(lp12107
g4328
asS'600024'
p12108
(lp12109
g7948
asS'265900'
p12110
(lp12111
S'C536252'
p12112
asS'151600'
p12113
(lp12114
S'C535889'
p12115
asS'133190'
p12116
(lp12117
S'C535738'
p12118
asS'612908'
p12119
(lp12120
S'C565102'
p12121
asS'608611'
p12122
(lp12123
S'C563212'
p12124
asS'606854'
p12125
(lp12126
S'C564652'
p12127
asS'614331'
p12128
(lp12129
S'C566039'
p12130
asS'608612'
p12131
(lp12132
S'C535706'
p12133
asS'608615'
p12134
(lp12135
S'C563898'
p12136
asS'612900'
p12137
(lp12138
S'C567867'
p12139
asS'146800'
p12140
(lp12141
S'D053560'
p12142
ag10351
asS'610185'
p12143
(lp12144
S'C567656'
p12145
asS'610187'
p12146
(lp12147
S'C565710'
p12148
asS'610181'
p12149
(lp12150
S'C535607'
p12151
asS'122600'
p12152
(lp12153
S'C565149'
p12154
asS'267700'
p12155
(lp12156
S'D051359'
p12157
asS'180020'
p12158
(lp12159
S'C566719'
p12160
asS'610188'
p12161
(lp12162
S'C537688'
p12163
asS'610189'
p12164
(lp12165
S'C565708'
p12166
asS'265950'
p12167
(lp12168
S'C562561'
p12169
asS'610154'
p12170
(lp12171
S'C565716'
p12172
asS'269000'
p12173
(lp12174
g4492
asS'600118'
p12175
(lp12176
S'C536681'
p12177
asS'600116'
p12178
(lp12179
S'D020734'
p12180
asS'252600'
p12181
(lp12182
g798
aS'C567099'
p12183
asS'220210'
p12184
(lp12185
S'C535313'
p12186
asS'252605'
p12187
(lp12188
S'C565367'
p12189
asS'233700'
p12190
(lp12191
S'C565532'
p12192
asS'600110'
p12193
(lp12194
S'C535805'
p12195
asS'190100'
p12196
(lp12197
S'C537682'
p12198
asS'274150'
p12199
(lp12200
S'D011697'
p12201
asS'173200'
p12202
(lp12203
S'D010916'
p12204
asS'600334'
p12205
(lp12206
S'D049310'
p12207
asS'607107'
p12208
(lp12209
S'C538339'
p12210
asS'607100'
p12211
(lp12212
g6485
ag7039
asS'607101'
p12213
(lp12214
S'C564624'
p12215
asS'607102'
p12216
(lp12217
g3878
ag5560
asS'606454'
p12218
(lp12219
g3033
asS'118450'
p12220
(lp12221
S'D016738'
p12222
asS'607108'
p12223
(lp12224
g6587
asS'607458'
p12225
(lp12226
S'C537197'
p12227
asS'607459'
p12228
(lp12229
g5118
ag5119
asS'275220'
p12230
(lp12231
S'C535563'
p12232
asS'608104'
p12233
(lp12234
S'C535746'
p12235
asS'611105'
p12236
(lp12237
S'C567009'
p12238
asS'608106'
p12239
(lp12240
g3234
asS'123150'
p12241
(lp12242
g5087
asS'611102'
p12243
(lp12244
S'C567010'
p12245
asS'168500'
p12246
(lp12247
S'C566826'
p12248
aS'C566827'
p12249
asS'611100'
p12250
(lp12251
S'C567011'
p12252
asS'613307'
p12253
(lp12254
S'C567651'
p12255
asS'160700'
p12256
(lp12257
S'C563541'
p12258
asS'608099'
p12259
(lp12260
S'D058088'
p12261
asS'307200'
p12262
(lp12263
S'C537149'
p12264
asS'228300'
p12265
(lp12266
g10860
asS'194090'
p12267
(lp12268
S'C565991'
p12269
asS'301840'
p12270
(lp12271
S'C537316'
p12272
asS'256600'
p12273
(lp12274
S'D019150'
p12275
asS'225200'
p12276
(lp12277
g7782
asS'610984'
p12278
(lp12279
S'C572568'
p12280
asS'108120'
p12281
(lp12282
S'C535378'
p12283
asS'188400'
p12284
(lp12285
S'D004062'
p12286
asS'610153'
p12287
(lp12288
S'C565717'
p12289
asS'606522'
p12290
(lp12291
g4790
asS'178110'
p12292
(lp12293
S'C566739'
p12294
asS'189800'
p12295
(lp12296
S'D011225'
p12297
aS'D046110'
p12298
aS'D017359'
p12299
asS'606528'
p12300
(lp12301
S'C564701'
p12302
asS'251900'
p12303
(lp12304
S'D017240'
p12305
asS'607584'
p12306
(lp12307
S'C564375'
p12308
asS'607585'
p12309
(lp12310
S'D007680'
p12311
asS'607854'
p12312
(lp12313
g11663
asS'607855'
p12314
(lp12315
S'C537384'
p12316
aS'C564317'
p12317
asS'310490'
p12318
(lp12319
S'C536450'
p12320
asS'610965'
p12321
(lp12322
S'C567043'
p12323
asS'242850'
p12324
(lp12325
S'C565469'
p12326
asS'212550'
p12327
(lp12328
S'C565876'
p12329
asS'600361'
p12330
(lp12331
S'D015419'
p12332
asS'606674'
p12333
(lp12334
S'C564681'
p12335
asS'601885'
p12336
(lp12337
S'C566608'
p12338
asS'132000'
p12339
(lp12340
S'C562638'
p12341
asS'193220'
p12342
(lp12343
S'C536352'
p12344
asS'603003'
p12345
(lp12346
S'D015529'
p12347
asS'159440'
p12348
(lp12349
g4055
asS'607218'
p12350
(lp12351
g7373
asS'600145'
p12352
(lp12353
S'C537221'
p12354
aS'D004480'
p12355
asS'300645'
p12356
(lp12357
S'C567068'
p12358
asS'300644'
p12359
(lp12360
g1313
asS'225060'
p12361
(lp12362
S'C536726'
p12363
ag2092
asS'609887'
p12364
(lp12365
S'C563692'
p12366
asS'609886'
p12367
(lp12368
S'C563693'
p12369
asS'300643'
p12370
(lp12371
S'C564467'
p12372
asS'609884'
p12373
(lp12374
g8770
ag8290
asS'608578'
p12375
(lp12376
S'C563904'
p12377
asS'609889'
p12378
(lp12379
g2262
asS'308300'
p12380
(lp12381
S'D007184'
p12382
aS'C531716'
p12383
asS'177820'
p12384
(lp12385
S'C536458'
p12386
asS'170700'
p12387
(lp12388
S'C538179'
p12389
asS'601477'
p12390
(lp12391
S'C537613'
p12392
asS'136900'
p12393
(lp12394
S'C564992'
p12395
asS'206900'
p12396
(lp12397
S'C565948'
p12398
asS'145420'
p12399
(lp12400
S'C537085'
p12401
as.